
target/aarch64-unknown-linux-gnu/debug/kernel:     file format elf64-littleaarch64


Disassembly of section .text:

0000000000080000 <__boot>:
   80000:	d53800a0 	mrs	x0, mpidr_el1
   80004:	92400400 	and	x0, x0, #0x3
   80008:	58000701 	ldr	x1, 800e8 <.SwitchReturn+0x28>
   8000c:	58000722 	ldr	x2, 800f0 <.SwitchReturn+0x30>
   80010:	eb020021 	subs	x1, x1, x2
   80014:	9b007c22 	mul	x2, x1, x0
   80018:	58000701 	ldr	x1, 800f8 <.SwitchReturn+0x38>
   8001c:	cb22603f 	sub	sp, x1, x2
   80020:	b5000120 	cbnz	x0, 80044 <.bss_done>
   80024:	580006e0 	ldr	x0, 80100 <.SwitchReturn+0x40>
   80028:	58000702 	ldr	x2, 80108 <.SwitchReturn+0x48>
   8002c:	cb000042 	sub	x2, x2, x0
   80030:	d344fc42 	lsr	x2, x2, #4
   80034:	b4000082 	cbz	x2, 80044 <.bss_done>

0000000000080038 <.bss_zero_loop>:
   80038:	a8817c1f 	stp	xzr, xzr, [x0], #16
   8003c:	d1000442 	sub	x2, x2, #0x1
   80040:	b5ffffc2 	cbnz	x2, 80038 <.bss_zero_loop>

0000000000080044 <.bss_done>:
   80044:	9400000b 	bl	80070 <__switch_el2_to_el1>
   80048:	10023dc0 	adr	x0, 84800 <__ExceptionVectorTable>
   8004c:	d518c000 	msr	vbar_el1, x0
   80050:	d5381041 	mrs	x1, cpacr_el1
   80054:	d2a00600 	mov	x0, #0x300000              	// #3145728
   80058:	aa000020 	orr	x0, x1, x0
   8005c:	d5181040 	msr	cpacr_el1, x0
   80060:	d53800a0 	mrs	x0, mpidr_el1
   80064:	92400400 	and	x0, x0, #0x3
   80068:	140013f4 	b	85038 <__rust_entry>
   8006c:	14000fb2 	b	83f34 <__hang>

0000000000080070 <__switch_el2_to_el1>:
   80070:	d5384240 	mrs	x0, currentel
   80074:	f100101f 	cmp	x0, #0x4
   80078:	54000240 	b.eq	800c0 <.SwitchReturn>  // b.none
   8007c:	d518101f 	msr	sctlr_el1, xzr
   80080:	d2b00000 	mov	x0, #0x80000000            	// #2147483648
   80084:	b27f0000 	orr	x0, x0, #0x2
   80088:	d51c1100 	msr	hcr_el2, x0
   8008c:	d53c1100 	mrs	x0, hcr_el2
   80090:	d53ce102 	mrs	x2, cnthctl_el2
   80094:	b2400442 	orr	x2, x2, #0x3
   80098:	d51ce102 	msr	cnthctl_el2, x2
   8009c:	d51ce07f 	msr	cntvoff_el2, xzr
   800a0:	d28078a2 	mov	x2, #0x3c5                 	// #965
   800a4:	d51c4002 	msr	spsr_el2, x2
   800a8:	d53c1100 	mrs	x0, hcr_el2
   800ac:	927af000 	and	x0, x0, #0xffffffffffffffc7
   800b0:	d51c1100 	msr	hcr_el2, x0
   800b4:	10000061 	adr	x1, 800c0 <.SwitchReturn>
   800b8:	d51c4021 	msr	elr_el2, x1
   800bc:	d69f03e0 	eret

00000000000800c0 <.SwitchReturn>:
   800c0:	58000281 	ldr	x1, 80110 <.SwitchReturn+0x50>
   800c4:	d53800a0 	mrs	x0, mpidr_el1
   800c8:	92400400 	and	x0, x0, #0x3
   800cc:	580000e2 	ldr	x2, 800e8 <.SwitchReturn+0x28>
   800d0:	58000103 	ldr	x3, 800f0 <.SwitchReturn+0x30>
   800d4:	eb030042 	subs	x2, x2, x3
   800d8:	9b007c42 	mul	x2, x2, x0
   800dc:	cb020020 	sub	x0, x1, x2
   800e0:	9100001f 	mov	sp, x0
   800e4:	d65f03c0 	ret
   800e8:	000d37c0 	.word	0x000d37c0
   800ec:	00000000 	.word	0x00000000
   800f0:	000c37c0 	.word	0x000c37c0
   800f4:	00000000 	.word	0x00000000
   800f8:	000c47c0 	.word	0x000c47c0
   800fc:	00000000 	.word	0x00000000
   80100:	0008f000 	.word	0x0008f000
   80104:	00000000 	.word	0x00000000
   80108:	000937a0 	.word	0x000937a0
   8010c:	00000000 	.word	0x00000000
   80110:	000d27c0 	.word	0x000d27c0
   80114:	00000000 	.word	0x00000000

0000000000080118 <_ZN4core3ptr18real_drop_in_place17hb42a928b7cfb09ffE.llvm.14843948732551940918>:
   80118:	f81e0ff4 	str	x20, [sp, #-32]!
   8011c:	a9017bf3 	stp	x19, x30, [sp, #16]
   80120:	f9400008 	ldr	x8, [x0]
   80124:	aa0003f3 	mov	x19, x0
   80128:	c85f7d09 	ldxr	x9, [x8]
   8012c:	f1000529 	subs	x9, x9, #0x1
   80130:	c80afd09 	stlxr	w10, x9, [x8]
   80134:	35ffffaa 	cbnz	w10, 80128 <_ZN4core3ptr18real_drop_in_place17hb42a928b7cfb09ffE.llvm.14843948732551940918+0x10>
   80138:	54000081 	b.ne	80148 <_ZN4core3ptr18real_drop_in_place17hb42a928b7cfb09ffE.llvm.14843948732551940918+0x30>  // b.any
   8013c:	d50339bf 	dmb	ishld
   80140:	aa1303e0 	mov	x0, x19
   80144:	94000537 	bl	81620 <_ZN5alloc4sync12Arc$LT$T$GT$9drop_slow17h4b104dfef6354cb2E>
   80148:	91002260 	add	x0, x19, #0x8
   8014c:	a9417bf3 	ldp	x19, x30, [sp, #16]
   80150:	f84207f4 	ldr	x20, [sp], #32
   80154:	14000b0f 	b	82d90 <_ZN79_$LT$ruspiro_brain..thoughts..waker..Waker$u20$as$u20$core..ops..drop..Drop$GT$4drop17h7df6c25be8e2a326E>
   80158:	aa0003f4 	mov	x20, x0
   8015c:	91002260 	add	x0, x19, #0x8
   80160:	94000004 	bl	80170 <_ZN4core3ptr18real_drop_in_place17heb1faf21e92f2cd3E.llvm.14843948732551940918>
   80164:	aa1403e0 	mov	x0, x20
   80168:	94000ee2 	bl	83cf0 <_Unwind_Resume>
   8016c:	d4200020 	brk	#0x1

0000000000080170 <_ZN4core3ptr18real_drop_in_place17heb1faf21e92f2cd3E.llvm.14843948732551940918>:
   80170:	14000b08 	b	82d90 <_ZN79_$LT$ruspiro_brain..thoughts..waker..Waker$u20$as$u20$core..ops..drop..Drop$GT$4drop17h7df6c25be8e2a326E>
   80174:	00000000 	.inst	0x00000000 ; undefined

0000000000080178 <_ZN4core3ptr18real_drop_in_place17h929d245683b059eeE>:
   80178:	a9bf7bf3 	stp	x19, x30, [sp, #-16]!
   8017c:	aa0003f3 	mov	x19, x0
   80180:	f9400000 	ldr	x0, [x0]
   80184:	b4000160 	cbz	x0, 801b0 <_ZN4core3ptr18real_drop_in_place17h929d245683b059eeE+0x38>
   80188:	f9400668 	ldr	x8, [x19, #8]
   8018c:	f9400108 	ldr	x8, [x8]
   80190:	d63f0100 	blr	x8
   80194:	f9400668 	ldr	x8, [x19, #8]
   80198:	f9400501 	ldr	x1, [x8, #8]
   8019c:	b40000a1 	cbz	x1, 801b0 <_ZN4core3ptr18real_drop_in_place17h929d245683b059eeE+0x38>
   801a0:	f9400260 	ldr	x0, [x19]
   801a4:	f9400902 	ldr	x2, [x8, #16]
   801a8:	a8c17bf3 	ldp	x19, x30, [sp], #16
   801ac:	140006f3 	b	81d78 <__rust_dealloc>
   801b0:	a8c17bf3 	ldp	x19, x30, [sp], #16
   801b4:	d65f03c0 	ret
   801b8:	a9400668 	ldp	x8, x1, [x19]
   801bc:	aa0003f3 	mov	x19, x0
   801c0:	aa0803e0 	mov	x0, x8
   801c4:	940000b7 	bl	804a0 <_ZN5alloc5alloc8box_free17h3eaf163627febce4E>
   801c8:	aa1303e0 	mov	x0, x19
   801cc:	94000ec9 	bl	83cf0 <_Unwind_Resume>
   801d0:	d4200020 	brk	#0x1
   801d4:	00000000 	.inst	0x00000000 ; undefined

00000000000801d8 <_ZN5alloc11collections5btree3map21BTreeMap$LT$K$C$V$GT$6insert17h7963dd2ba15c2205E>:
   801d8:	a9bb6bfc 	stp	x28, x26, [sp, #-80]!
   801dc:	a90163f9 	stp	x25, x24, [sp, #16]
   801e0:	a9025bf7 	stp	x23, x22, [sp, #32]
   801e4:	a90353f5 	stp	x21, x20, [sp, #48]
   801e8:	a9047bf3 	stp	x19, x30, [sp, #64]
   801ec:	d10ac3ff 	sub	sp, sp, #0x2b0
   801f0:	aa0803f3 	mov	x19, x8
   801f4:	d0000068 	adrp	x8, 8e000 <_ZN4core3fmt3num14DEC_DIGITS_LUT17h46bba502bada2534E+0x1c0>
   801f8:	aa0303f4 	mov	x20, x3
   801fc:	aa0203f5 	mov	x21, x2
   80200:	aa0003f6 	mov	x22, x0
   80204:	f9448108 	ldr	x8, [x8, #2304]
   80208:	f9400017 	ldr	x23, [x0]
   8020c:	a9020fe2 	stp	x2, x3, [sp, #32]
   80210:	f900a3e1 	str	x1, [sp, #320]
   80214:	eb0802ff 	cmp	x23, x8
   80218:	54000060 	b.eq	80224 <_ZN5alloc11collections5btree3map21BTreeMap$LT$K$C$V$GT$6insert17h7963dd2ba15c2205E+0x4c>  // b.none
   8021c:	f94006c8 	ldr	x8, [x22, #8]
   80220:	14000013 	b	8026c <_ZN5alloc11collections5btree3map21BTreeMap$LT$K$C$V$GT$6insert17h7963dd2ba15c2205E+0x94>
   80224:	9100c3e8 	add	x8, sp, #0x30
   80228:	52802102 	mov	w2, #0x108                 	// #264
   8022c:	91001100 	add	x0, x8, #0x4
   80230:	2a1f03e1 	mov	w1, wzr
   80234:	9400279d 	bl	8a0a8 <memset>
   80238:	52802300 	mov	w0, #0x118                 	// #280
   8023c:	52800101 	mov	w1, #0x8                   	// #8
   80240:	940006ca 	bl	81d68 <__rust_alloc>
   80244:	b4001000 	cbz	x0, 80444 <_ZN5alloc11collections5btree3map21BTreeMap$LT$K$C$V$GT$6insert17h7963dd2ba15c2205E+0x26c>
   80248:	aa0003f7 	mov	x23, x0
   8024c:	91003000 	add	x0, x0, #0xc
   80250:	52802182 	mov	w2, #0x10c                 	// #268
   80254:	9100c3e1 	add	x1, sp, #0x30
   80258:	f90002ff 	str	xzr, [x23]
   8025c:	790016ff 	strh	wzr, [x23, #10]
   80260:	94002749 	bl	89f84 <memcpy>
   80264:	aa1f03e8 	mov	x8, xzr
   80268:	a9007ed7 	stp	x23, xzr, [x22]
   8026c:	a9035fe8 	stp	x8, x23, [sp, #48]
   80270:	f90023f6 	str	x22, [sp, #64]
   80274:	910683e8 	add	x8, sp, #0x1a0
   80278:	9100c3e0 	add	x0, sp, #0x30
   8027c:	910503e1 	add	x1, sp, #0x140
   80280:	940002aa 	bl	80d28 <_ZN5alloc11collections5btree6search11search_tree17h98dfec08e1b8dbb8E>
   80284:	f940d3e8 	ldr	x8, [sp, #416]
   80288:	f100051f 	cmp	x8, #0x1
   8028c:	540004c1 	b.ne	80324 <_ZN5alloc11collections5btree3map21BTreeMap$LT$K$C$V$GT$6insert17h7963dd2ba15c2205E+0x14c>  // b.any
   80290:	f9400ac8 	ldr	x8, [x22, #16]
   80294:	a95ba7ea 	ldp	x10, x9, [sp, #440]
   80298:	f940a3e1 	ldr	x1, [sp, #320]
   8029c:	a95aafec 	ldp	x12, x11, [sp, #424]
   802a0:	91000508 	add	x8, x8, #0x1
   802a4:	f9000ac8 	str	x8, [x22, #16]
   802a8:	a903abeb 	stp	x11, x10, [sp, #56]
   802ac:	f9001bec 	str	x12, [sp, #48]
   802b0:	f90027e9 	str	x9, [sp, #72]
   802b4:	910683e8 	add	x8, sp, #0x1a0
   802b8:	9100c3e0 	add	x0, sp, #0x30
   802bc:	aa1503e2 	mov	x2, x21
   802c0:	aa1403e3 	mov	x3, x20
   802c4:	940000ef 	bl	80680 <_ZN5alloc11collections5btree4node210Handle$LT$alloc..collections..btree..node..NodeRef$LT$alloc..collections..btree..node..marker..Mut$C$K$C$V$C$alloc..collections..btree..node..marker..Leaf$GT$$C$alloc..collections..btree..node..marker..Edge$GT$6insert17hcc5bd63ead71e416E>
   802c8:	f940d3e8 	ldr	x8, [sp, #416]
   802cc:	f100051f 	cmp	x8, #0x1
   802d0:	54000a81 	b.ne	80420 <_ZN5alloc11collections5btree3map21BTreeMap$LT$K$C$V$GT$6insert17h7963dd2ba15c2205E+0x248>  // b.any
   802d4:	a95b6bea 	ldp	x10, x26, [sp, #432]
   802d8:	a95c57f7 	ldp	x23, x21, [sp, #448]
   802dc:	a95d53f6 	ldp	x22, x20, [sp, #464]
   802e0:	f9400148 	ldr	x8, [x10]
   802e4:	b4000408 	cbz	x8, 80364 <_ZN5alloc11collections5btree3map21BTreeMap$LT$K$C$V$GT$6insert17h7963dd2ba15c2205E+0x18c>
   802e8:	f940d7e9 	ldr	x9, [sp, #424]
   802ec:	7940114a 	ldrh	w10, [x10, #8]
   802f0:	f940f3e5 	ldr	x5, [sp, #480]
   802f4:	91000529 	add	x9, x9, #0x1
   802f8:	92403d4a 	and	x10, x10, #0xffff
   802fc:	a90323e9 	stp	x9, x8, [sp, #48]
   80300:	a9042bfa 	stp	x26, x10, [sp, #64]
   80304:	910683e8 	add	x8, sp, #0x1a0
   80308:	9100c3e0 	add	x0, sp, #0x30
   8030c:	aa1703e1 	mov	x1, x23
   80310:	aa1503e2 	mov	x2, x21
   80314:	aa1603e3 	mov	x3, x22
   80318:	aa1403e4 	mov	x4, x20
   8031c:	9400017b 	bl	80908 <_ZN5alloc11collections5btree4node214Handle$LT$alloc..collections..btree..node..NodeRef$LT$alloc..collections..btree..node..marker..Mut$C$K$C$V$C$alloc..collections..btree..node..marker..Internal$GT$$C$alloc..collections..btree..node..marker..Edge$GT$6insert17hb9ca022211a0c636E>
   80320:	17ffffea 	b	802c8 <_ZN5alloc11collections5btree3map21BTreeMap$LT$K$C$V$GT$6insert17h7963dd2ba15c2205E+0xf0>
   80324:	f940e3e8 	ldr	x8, [sp, #448]
   80328:	f940dbe9 	ldr	x9, [sp, #432]
   8032c:	8b081128 	add	x8, x9, x8, lsl #4
   80330:	f9403909 	ldr	x9, [x8, #112]
   80334:	f90007e9 	str	x9, [sp, #8]
   80338:	f9403509 	ldr	x9, [x8, #104]
   8033c:	f90003e9 	str	x9, [sp]
   80340:	3dc003e0 	ldr	q0, [sp]
   80344:	a906d115 	stp	x21, x20, [x8, #104]
   80348:	3d8007e0 	str	q0, [sp, #16]
   8034c:	f9400fe8 	ldr	x8, [sp, #24]
   80350:	f9000a68 	str	x8, [x19, #16]
   80354:	52800028 	mov	w8, #0x1                   	// #1
   80358:	f9400be9 	ldr	x9, [sp, #16]
   8035c:	f9000669 	str	x9, [x19, #8]
   80360:	14000031 	b	80424 <_ZN5alloc11collections5btree3map21BTreeMap$LT$K$C$V$GT$6insert17h7963dd2ba15c2205E+0x24c>
   80364:	9100c3e8 	add	x8, sp, #0x30
   80368:	52802102 	mov	w2, #0x108                 	// #264
   8036c:	91001100 	add	x0, x8, #0x4
   80370:	2a1f03e1 	mov	w1, wzr
   80374:	9400274d 	bl	8a0a8 <memset>
   80378:	52802182 	mov	w2, #0x10c                 	// #268
   8037c:	910683e0 	add	x0, sp, #0x1a0
   80380:	9100c3e1 	add	x1, sp, #0x30
   80384:	94002700 	bl	89f84 <memcpy>
   80388:	6f00e400 	movi	v0.2d, #0x0
   8038c:	52802f00 	mov	w0, #0x178                 	// #376
   80390:	52800101 	mov	w1, #0x8                   	// #8
   80394:	ad0a03e0 	stp	q0, q0, [sp, #320]
   80398:	ad0b03e0 	stp	q0, q0, [sp, #352]
   8039c:	ad0c03e0 	stp	q0, q0, [sp, #384]
   803a0:	94000672 	bl	81d68 <__rust_alloc>
   803a4:	b4000580 	cbz	x0, 80454 <_ZN5alloc11collections5btree3map21BTreeMap$LT$K$C$V$GT$6insert17h7963dd2ba15c2205E+0x27c>
   803a8:	aa0003f8 	mov	x24, x0
   803ac:	91003000 	add	x0, x0, #0xc
   803b0:	52802182 	mov	w2, #0x10c                 	// #268
   803b4:	910683e1 	add	x1, sp, #0x1a0
   803b8:	f900031f 	str	xzr, [x24]
   803bc:	7900171f 	strh	wzr, [x24, #10]
   803c0:	940026f1 	bl	89f84 <memcpy>
   803c4:	91046319 	add	x25, x24, #0x118
   803c8:	910503e1 	add	x1, sp, #0x140
   803cc:	aa1903e0 	mov	x0, x25
   803d0:	52800c02 	mov	w2, #0x60                  	// #96
   803d4:	940026ec 	bl	89f84 <memcpy>
   803d8:	f9400348 	ldr	x8, [x26]
   803dc:	f9008f08 	str	x8, [x24, #280]
   803e0:	f9400749 	ldr	x9, [x26, #8]
   803e4:	91000529 	add	x9, x9, #0x1
   803e8:	a9002758 	stp	x24, x9, [x26]
   803ec:	f9000118 	str	x24, [x8]
   803f0:	7900111f 	strh	wzr, [x8, #8]
   803f4:	79401708 	ldrh	w8, [x24, #10]
   803f8:	8b080f09 	add	x9, x24, x8, lsl #3
   803fc:	8b08130a 	add	x10, x24, x8, lsl #4
   80400:	f9000937 	str	x23, [x9, #16]
   80404:	91000509 	add	x9, x8, #0x1
   80408:	11000508 	add	w8, w8, #0x1
   8040c:	a906d955 	stp	x21, x22, [x10, #104]
   80410:	f8297b34 	str	x20, [x25, x9, lsl #3]
   80414:	79001708 	strh	w8, [x24, #10]
   80418:	f9000298 	str	x24, [x20]
   8041c:	79001289 	strh	w9, [x20, #8]
   80420:	aa1f03e8 	mov	x8, xzr
   80424:	f9000268 	str	x8, [x19]
   80428:	910ac3ff 	add	sp, sp, #0x2b0
   8042c:	a9447bf3 	ldp	x19, x30, [sp, #64]
   80430:	a94353f5 	ldp	x21, x20, [sp, #48]
   80434:	a9425bf7 	ldp	x23, x22, [sp, #32]
   80438:	a94163f9 	ldp	x25, x24, [sp, #16]
   8043c:	a8c56bfc 	ldp	x28, x26, [sp], #80
   80440:	d65f03c0 	ret
   80444:	52802300 	mov	w0, #0x118                 	// #280
   80448:	52800101 	mov	w1, #0x8                   	// #8
   8044c:	94001bed 	bl	87400 <_ZN5alloc5alloc18handle_alloc_error17h11286e57f71cf9c1E>
   80450:	d4200020 	brk	#0x1
   80454:	52802f00 	mov	w0, #0x178                 	// #376
   80458:	52800101 	mov	w1, #0x8                   	// #8
   8045c:	94001be9 	bl	87400 <_ZN5alloc5alloc18handle_alloc_error17h11286e57f71cf9c1E>
   80460:	d4200020 	brk	#0x1
   80464:	aa0003f3 	mov	x19, x0
   80468:	aa1303e0 	mov	x0, x19
   8046c:	94000e21 	bl	83cf0 <_Unwind_Resume>
   80470:	d4200020 	brk	#0x1
   80474:	aa0003f3 	mov	x19, x0
   80478:	910083e0 	add	x0, sp, #0x20
   8047c:	97ffff3f 	bl	80178 <_ZN4core3ptr18real_drop_in_place17h929d245683b059eeE>
   80480:	aa1303e0 	mov	x0, x19
   80484:	94000e1b 	bl	83cf0 <_Unwind_Resume>
   80488:	d4200020 	brk	#0x1
   8048c:	aa0003f3 	mov	x19, x0
   80490:	aa1303e0 	mov	x0, x19
   80494:	94000e17 	bl	83cf0 <_Unwind_Resume>
   80498:	d4200020 	brk	#0x1
   8049c:	00000000 	.inst	0x00000000 ; undefined

00000000000804a0 <_ZN5alloc5alloc8box_free17h3eaf163627febce4E>:
   804a0:	aa0103e8 	mov	x8, x1
   804a4:	f9400421 	ldr	x1, [x1, #8]
   804a8:	b4000061 	cbz	x1, 804b4 <_ZN5alloc5alloc8box_free17h3eaf163627febce4E+0x14>
   804ac:	f9400902 	ldr	x2, [x8, #16]
   804b0:	14000632 	b	81d78 <__rust_dealloc>
   804b4:	d65f03c0 	ret

00000000000804b8 <_ZN95_$LT$alloc..collections..btree..map..BTreeMap$LT$K$C$V$GT$$u20$as$u20$core..ops..drop..Drop$GT$4drop17he8bf8918e7498e61E>:
   804b8:	a9bc63f9 	stp	x25, x24, [sp, #-64]!
   804bc:	a9015bf7 	stp	x23, x22, [sp, #16]
   804c0:	a90253f5 	stp	x21, x20, [sp, #32]
   804c4:	a9037bf3 	stp	x19, x30, [sp, #48]
   804c8:	a9402015 	ldp	x21, x8, [x0]
   804cc:	f9400818 	ldr	x24, [x0, #16]
   804d0:	b4000088 	cbz	x8, 804e0 <_ZN95_$LT$alloc..collections..btree..map..BTreeMap$LT$K$C$V$GT$$u20$as$u20$core..ops..drop..Drop$GT$4drop17he8bf8918e7498e61E+0x28>
   804d4:	f9408eb5 	ldr	x21, [x21, #280]
   804d8:	f1000508 	subs	x8, x8, #0x1
   804dc:	54ffffc1 	b.ne	804d4 <_ZN95_$LT$alloc..collections..btree..map..BTreeMap$LT$K$C$V$GT$$u20$as$u20$core..ops..drop..Drop$GT$4drop17he8bf8918e7498e61E+0x1c>  // b.any
   804e0:	b4000898 	cbz	x24, 805f0 <_ZN95_$LT$alloc..collections..btree..map..BTreeMap$LT$K$C$V$GT$$u20$as$u20$core..ops..drop..Drop$GT$4drop17he8bf8918e7498e61E+0x138>
   804e4:	aa1f03f9 	mov	x25, xzr
   804e8:	52802313 	mov	w19, #0x118                 	// #280
   804ec:	52802f14 	mov	w20, #0x178                 	// #376
   804f0:	794016a8 	ldrh	w8, [x21, #10]
   804f4:	eb08033f 	cmp	x25, x8
   804f8:	54000182 	b.cs	80528 <_ZN95_$LT$alloc..collections..btree..map..BTreeMap$LT$K$C$V$GT$$u20$as$u20$core..ops..drop..Drop$GT$4drop17he8bf8918e7498e61E+0x70>  // b.hs, b.nlast
   804fc:	14000006 	b	80514 <_ZN95_$LT$alloc..collections..btree..map..BTreeMap$LT$K$C$V$GT$$u20$as$u20$core..ops..drop..Drop$GT$4drop17he8bf8918e7498e61E+0x5c>
   80500:	d1000718 	sub	x24, x24, #0x1
   80504:	b4000778 	cbz	x24, 805f0 <_ZN95_$LT$alloc..collections..btree..map..BTreeMap$LT$K$C$V$GT$$u20$as$u20$core..ops..drop..Drop$GT$4drop17he8bf8918e7498e61E+0x138>
   80508:	794016a8 	ldrh	w8, [x21, #10]
   8050c:	eb08033f 	cmp	x25, x8
   80510:	540000c2 	b.cs	80528 <_ZN95_$LT$alloc..collections..btree..map..BTreeMap$LT$K$C$V$GT$$u20$as$u20$core..ops..drop..Drop$GT$4drop17he8bf8918e7498e61E+0x70>  // b.hs, b.nlast
   80514:	8b1912a8 	add	x8, x21, x25, lsl #4
   80518:	91000739 	add	x25, x25, #0x1
   8051c:	a946dd16 	ldp	x22, x23, [x8, #104]
   80520:	b5000576 	cbnz	x22, 805cc <_ZN95_$LT$alloc..collections..btree..map..BTreeMap$LT$K$C$V$GT$$u20$as$u20$core..ops..drop..Drop$GT$4drop17he8bf8918e7498e61E+0x114>
   80524:	17fffff7 	b	80500 <_ZN95_$LT$alloc..collections..btree..map..BTreeMap$LT$K$C$V$GT$$u20$as$u20$core..ops..drop..Drop$GT$4drop17he8bf8918e7498e61E+0x48>
   80528:	f94002b6 	ldr	x22, [x21]
   8052c:	b4000096 	cbz	x22, 8053c <_ZN95_$LT$alloc..collections..btree..map..BTreeMap$LT$K$C$V$GT$$u20$as$u20$core..ops..drop..Drop$GT$4drop17he8bf8918e7498e61E+0x84>
   80530:	794012b7 	ldrh	w23, [x21, #8]
   80534:	52800039 	mov	w25, #0x1                   	// #1
   80538:	14000003 	b	80544 <_ZN95_$LT$alloc..collections..btree..map..BTreeMap$LT$K$C$V$GT$$u20$as$u20$core..ops..drop..Drop$GT$4drop17he8bf8918e7498e61E+0x8c>
   8053c:	aa1f03f7 	mov	x23, xzr
   80540:	aa1f03f9 	mov	x25, xzr
   80544:	aa1503e0 	mov	x0, x21
   80548:	aa1303e1 	mov	x1, x19
   8054c:	52800102 	mov	w2, #0x8                   	// #8
   80550:	9400060a 	bl	81d78 <__rust_dealloc>
   80554:	794016c8 	ldrh	w8, [x22, #10]
   80558:	eb0802ff 	cmp	x23, x8
   8055c:	54000182 	b.cs	8058c <_ZN95_$LT$alloc..collections..btree..map..BTreeMap$LT$K$C$V$GT$$u20$as$u20$core..ops..drop..Drop$GT$4drop17he8bf8918e7498e61E+0xd4>  // b.hs, b.nlast
   80560:	14000010 	b	805a0 <_ZN95_$LT$alloc..collections..btree..map..BTreeMap$LT$K$C$V$GT$$u20$as$u20$core..ops..drop..Drop$GT$4drop17he8bf8918e7498e61E+0xe8>
   80564:	794012d7 	ldrh	w23, [x22, #8]
   80568:	91000739 	add	x25, x25, #0x1
   8056c:	aa1603e0 	mov	x0, x22
   80570:	aa1403e1 	mov	x1, x20
   80574:	52800102 	mov	w2, #0x8                   	// #8
   80578:	94000600 	bl	81d78 <__rust_dealloc>
   8057c:	794016a8 	ldrh	w8, [x21, #10]
   80580:	aa1503f6 	mov	x22, x21
   80584:	eb0802ff 	cmp	x23, x8
   80588:	540000c3 	b.cc	805a0 <_ZN95_$LT$alloc..collections..btree..map..BTreeMap$LT$K$C$V$GT$$u20$as$u20$core..ops..drop..Drop$GT$4drop17he8bf8918e7498e61E+0xe8>  // b.lo, b.ul, b.last
   8058c:	f94002d5 	ldr	x21, [x22]
   80590:	b5fffeb5 	cbnz	x21, 80564 <_ZN95_$LT$alloc..collections..btree..map..BTreeMap$LT$K$C$V$GT$$u20$as$u20$core..ops..drop..Drop$GT$4drop17he8bf8918e7498e61E+0xac>
   80594:	aa1f03f7 	mov	x23, xzr
   80598:	aa1f03f9 	mov	x25, xzr
   8059c:	17fffff4 	b	8056c <_ZN95_$LT$alloc..collections..btree..map..BTreeMap$LT$K$C$V$GT$$u20$as$u20$core..ops..drop..Drop$GT$4drop17he8bf8918e7498e61E+0xb4>
   805a0:	8b1712c8 	add	x8, x22, x23, lsl #4
   805a4:	8b170ec9 	add	x9, x22, x23, lsl #3
   805a8:	a946dd16 	ldp	x22, x23, [x8, #104]
   805ac:	f9409135 	ldr	x21, [x9, #288]
   805b0:	f1000728 	subs	x8, x25, #0x1
   805b4:	54000080 	b.eq	805c4 <_ZN95_$LT$alloc..collections..btree..map..BTreeMap$LT$K$C$V$GT$$u20$as$u20$core..ops..drop..Drop$GT$4drop17he8bf8918e7498e61E+0x10c>  // b.none
   805b8:	f9408eb5 	ldr	x21, [x21, #280]
   805bc:	f1000508 	subs	x8, x8, #0x1
   805c0:	54ffffc1 	b.ne	805b8 <_ZN95_$LT$alloc..collections..btree..map..BTreeMap$LT$K$C$V$GT$$u20$as$u20$core..ops..drop..Drop$GT$4drop17he8bf8918e7498e61E+0x100>  // b.any
   805c4:	aa1f03f9 	mov	x25, xzr
   805c8:	b4fff9d6 	cbz	x22, 80500 <_ZN95_$LT$alloc..collections..btree..map..BTreeMap$LT$K$C$V$GT$$u20$as$u20$core..ops..drop..Drop$GT$4drop17he8bf8918e7498e61E+0x48>
   805cc:	f94002e8 	ldr	x8, [x23]
   805d0:	aa1603e0 	mov	x0, x22
   805d4:	d63f0100 	blr	x8
   805d8:	f94006e1 	ldr	x1, [x23, #8]
   805dc:	b4fff921 	cbz	x1, 80500 <_ZN95_$LT$alloc..collections..btree..map..BTreeMap$LT$K$C$V$GT$$u20$as$u20$core..ops..drop..Drop$GT$4drop17he8bf8918e7498e61E+0x48>
   805e0:	f9400ae2 	ldr	x2, [x23, #16]
   805e4:	aa1603e0 	mov	x0, x22
   805e8:	940005e4 	bl	81d78 <__rust_dealloc>
   805ec:	17ffffc5 	b	80500 <_ZN95_$LT$alloc..collections..btree..map..BTreeMap$LT$K$C$V$GT$$u20$as$u20$core..ops..drop..Drop$GT$4drop17he8bf8918e7498e61E+0x48>
   805f0:	d0000068 	adrp	x8, 8e000 <_ZN4core3fmt3num14DEC_DIGITS_LUT17h46bba502bada2534E+0x1c0>
   805f4:	f9448108 	ldr	x8, [x8, #2304]
   805f8:	eb0802bf 	cmp	x21, x8
   805fc:	540002a0 	b.eq	80650 <_ZN95_$LT$alloc..collections..btree..map..BTreeMap$LT$K$C$V$GT$$u20$as$u20$core..ops..drop..Drop$GT$4drop17he8bf8918e7498e61E+0x198>  // b.none
   80600:	f94002b4 	ldr	x20, [x21]
   80604:	52802301 	mov	w1, #0x118                 	// #280
   80608:	aa1503e0 	mov	x0, x21
   8060c:	52800102 	mov	w2, #0x8                   	// #8
   80610:	940005da 	bl	81d78 <__rust_dealloc>
   80614:	b40001f4 	cbz	x20, 80650 <_ZN95_$LT$alloc..collections..btree..map..BTreeMap$LT$K$C$V$GT$$u20$as$u20$core..ops..drop..Drop$GT$4drop17he8bf8918e7498e61E+0x198>
   80618:	f9400293 	ldr	x19, [x20]
   8061c:	52802f01 	mov	w1, #0x178                 	// #376
   80620:	aa1403e0 	mov	x0, x20
   80624:	52800102 	mov	w2, #0x8                   	// #8
   80628:	940005d4 	bl	81d78 <__rust_dealloc>
   8062c:	b4000133 	cbz	x19, 80650 <_ZN95_$LT$alloc..collections..btree..map..BTreeMap$LT$K$C$V$GT$$u20$as$u20$core..ops..drop..Drop$GT$4drop17he8bf8918e7498e61E+0x198>
   80630:	52802f14 	mov	w20, #0x178                 	// #376
   80634:	f9400275 	ldr	x21, [x19]
   80638:	aa1303e0 	mov	x0, x19
   8063c:	aa1403e1 	mov	x1, x20
   80640:	52800102 	mov	w2, #0x8                   	// #8
   80644:	940005cd 	bl	81d78 <__rust_dealloc>
   80648:	aa1503f3 	mov	x19, x21
   8064c:	b5ffff55 	cbnz	x21, 80634 <_ZN95_$LT$alloc..collections..btree..map..BTreeMap$LT$K$C$V$GT$$u20$as$u20$core..ops..drop..Drop$GT$4drop17he8bf8918e7498e61E+0x17c>
   80650:	a9437bf3 	ldp	x19, x30, [sp, #48]
   80654:	a94253f5 	ldp	x21, x20, [sp, #32]
   80658:	a9415bf7 	ldp	x23, x22, [sp, #16]
   8065c:	a8c463f9 	ldp	x25, x24, [sp], #64
   80660:	d65f03c0 	ret
   80664:	aa0003f3 	mov	x19, x0
   80668:	aa1603e0 	mov	x0, x22
   8066c:	aa1703e1 	mov	x1, x23
   80670:	97ffff8c 	bl	804a0 <_ZN5alloc5alloc8box_free17h3eaf163627febce4E>
   80674:	aa1303e0 	mov	x0, x19
   80678:	94000d9e 	bl	83cf0 <_Unwind_Resume>
   8067c:	d4200020 	brk	#0x1

0000000000080680 <_ZN5alloc11collections5btree4node210Handle$LT$alloc..collections..btree..node..NodeRef$LT$alloc..collections..btree..node..marker..Mut$C$K$C$V$C$alloc..collections..btree..node..marker..Leaf$GT$$C$alloc..collections..btree..node..marker..Edge$GT$6insert17hcc5bd63ead71e416E>:
   80680:	d106c3ff 	sub	sp, sp, #0x1b0
   80684:	a9156ffc 	stp	x28, x27, [sp, #336]
   80688:	a91667fa 	stp	x26, x25, [sp, #352]
   8068c:	a9175ff8 	stp	x24, x23, [sp, #368]
   80690:	a91857f6 	stp	x22, x21, [sp, #384]
   80694:	a9194ff4 	stp	x20, x19, [sp, #400]
   80698:	a91a7bfd 	stp	x29, x30, [sp, #416]
   8069c:	f940041b 	ldr	x27, [x0, #8]
   806a0:	aa0803f3 	mov	x19, x8
   806a4:	aa0303f9 	mov	x25, x3
   806a8:	aa0203fa 	mov	x26, x2
   806ac:	aa0003f8 	mov	x24, x0
   806b0:	aa0103f7 	mov	x23, x1
   806b4:	aa1b03fc 	mov	x28, x27
   806b8:	7840af88 	ldrh	w8, [x28, #10]!
   806bc:	f100291f 	cmp	x8, #0xa
   806c0:	540003a8 	b.hi	80734 <_ZN5alloc11collections5btree4node210Handle$LT$alloc..collections..btree..node..NodeRef$LT$alloc..collections..btree..node..marker..Mut$C$K$C$V$C$alloc..collections..btree..node..marker..Leaf$GT$$C$alloc..collections..btree..node..marker..Edge$GT$6insert17hcc5bd63ead71e416E+0xb4>  // b.pmore
   806c4:	f9400f14 	ldr	x20, [x24, #24]
   806c8:	91004369 	add	x9, x27, #0x10
   806cc:	91000695 	add	x21, x20, #0x1
   806d0:	8b140d36 	add	x22, x9, x20, lsl #3
   806d4:	cb140108 	sub	x8, x8, x20
   806d8:	aa1603e1 	mov	x1, x22
   806dc:	8b150d20 	add	x0, x9, x21, lsl #3
   806e0:	d37df102 	lsl	x2, x8, #3
   806e4:	94002647 	bl	8a000 <memmove>
   806e8:	f90002d7 	str	x23, [x22]
   806ec:	9101a369 	add	x9, x27, #0x68
   806f0:	79401768 	ldrh	w8, [x27, #10]
   806f4:	8b141137 	add	x23, x9, x20, lsl #4
   806f8:	8b151120 	add	x0, x9, x21, lsl #4
   806fc:	aa1703e1 	mov	x1, x23
   80700:	cb140108 	sub	x8, x8, x20
   80704:	d37ced02 	lsl	x2, x8, #4
   80708:	9400263e 	bl	8a000 <memmove>
   8070c:	a90066fa 	stp	x26, x25, [x23]
   80710:	79401768 	ldrh	w8, [x27, #10]
   80714:	a9402b09 	ldp	x9, x10, [x24]
   80718:	f9400b0b 	ldr	x11, [x24, #16]
   8071c:	11000508 	add	w8, w8, #0x1
   80720:	a900267f 	stp	xzr, x9, [x19]
   80724:	79001768 	strh	w8, [x27, #10]
   80728:	a9012e6a 	stp	x10, x11, [x19, #16]
   8072c:	f9001274 	str	x20, [x19, #32]
   80730:	14000069 	b	808d4 <_ZN5alloc11collections5btree4node210Handle$LT$alloc..collections..btree..node..NodeRef$LT$alloc..collections..btree..node..marker..Mut$C$K$C$V$C$alloc..collections..btree..node..marker..Leaf$GT$$C$alloc..collections..btree..node..marker..Edge$GT$6insert17hcc5bd63ead71e416E+0x254>
   80734:	f9400308 	ldr	x8, [x24]
   80738:	52802102 	mov	w2, #0x108                 	// #264
   8073c:	f9400b09 	ldr	x9, [x24, #16]
   80740:	2a1f03e1 	mov	w1, wzr
   80744:	a90367fa 	stp	x26, x25, [sp, #48]
   80748:	a90223e9 	stp	x9, x8, [sp, #32]
   8074c:	910113e8 	add	x8, sp, #0x44
   80750:	91001100 	add	x0, x8, #0x4
   80754:	94002655 	bl	8a0a8 <memset>
   80758:	52802300 	mov	w0, #0x118                 	// #280
   8075c:	52800101 	mov	w1, #0x8                   	// #8
   80760:	94000582 	bl	81d68 <__rust_alloc>
   80764:	b4000ca0 	cbz	x0, 808f8 <_ZN5alloc11collections5btree4node210Handle$LT$alloc..collections..btree..node..NodeRef$LT$alloc..collections..btree..node..marker..Mut$C$K$C$V$C$alloc..collections..btree..node..marker..Leaf$GT$$C$alloc..collections..btree..node..marker..Edge$GT$6insert17hcc5bd63ead71e416E+0x278>
   80768:	aa0003fd 	mov	x29, x0
   8076c:	aa0003f9 	mov	x25, x0
   80770:	aa0003f6 	mov	x22, x0
   80774:	91003000 	add	x0, x0, #0xc
   80778:	52802182 	mov	w2, #0x10c                 	// #268
   8077c:	910113e1 	add	x1, sp, #0x44
   80780:	f806873f 	str	xzr, [x25], #104
   80784:	7800aedf 	strh	wzr, [x22, #10]!
   80788:	940025ff 	bl	89f84 <memcpy>
   8078c:	f9402369 	ldr	x9, [x27, #64]
   80790:	910043ba 	add	x26, x29, #0x10
   80794:	79401768 	ldrh	w8, [x27, #10]
   80798:	91012361 	add	x1, x27, #0x48
   8079c:	aa1a03e0 	mov	x0, x26
   807a0:	f9000fe9 	str	x9, [sp, #24]
   807a4:	f9406769 	ldr	x9, [x27, #200]
   807a8:	d1001d14 	sub	x20, x8, #0x7
   807ac:	d37df282 	lsl	x2, x20, #3
   807b0:	f9000be9 	str	x9, [sp, #16]
   807b4:	f9406b69 	ldr	x9, [x27, #208]
   807b8:	f90007e9 	str	x9, [sp, #8]
   807bc:	940025f2 	bl	89f84 <memcpy>
   807c0:	91036361 	add	x1, x27, #0xd8
   807c4:	aa1903e0 	mov	x0, x25
   807c8:	d37cee82 	lsl	x2, x20, #4
   807cc:	940025ee 	bl	89f84 <memcpy>
   807d0:	f9400f15 	ldr	x21, [x24, #24]
   807d4:	528000c8 	mov	w8, #0x6                   	// #6
   807d8:	79001768 	strh	w8, [x27, #10]
   807dc:	f1001aa9 	subs	x9, x21, #0x6
   807e0:	790002d4 	strh	w20, [x22]
   807e4:	540002c8 	b.hi	8083c <_ZN5alloc11collections5btree4node210Handle$LT$alloc..collections..btree..node..NodeRef$LT$alloc..collections..btree..node..marker..Mut$C$K$C$V$C$alloc..collections..btree..node..marker..Leaf$GT$$C$alloc..collections..btree..node..marker..Edge$GT$6insert17hcc5bd63ead71e416E+0x1bc>  // b.pmore
   807e8:	79400388 	ldrh	w8, [x28]
   807ec:	91004369 	add	x9, x27, #0x10
   807f0:	910006b4 	add	x20, x21, #0x1
   807f4:	8b150d38 	add	x24, x9, x21, lsl #3
   807f8:	aa1803e1 	mov	x1, x24
   807fc:	9101a376 	add	x22, x27, #0x68
   80800:	8b140d20 	add	x0, x9, x20, lsl #3
   80804:	cb150108 	sub	x8, x8, x21
   80808:	d37df102 	lsl	x2, x8, #3
   8080c:	940025fd 	bl	8a000 <memmove>
   80810:	f9000317 	str	x23, [x24]
   80814:	8b1512d7 	add	x23, x22, x21, lsl #4
   80818:	79400388 	ldrh	w8, [x28]
   8081c:	8b1412c0 	add	x0, x22, x20, lsl #4
   80820:	aa1703e1 	mov	x1, x23
   80824:	cb150108 	sub	x8, x8, x21
   80828:	d37ced02 	lsl	x2, x8, #4
   8082c:	940025f5 	bl	8a000 <memmove>
   80830:	f9401be9 	ldr	x9, [sp, #48]
   80834:	aa1703e8 	mov	x8, x23
   80838:	14000015 	b	8088c <_ZN5alloc11collections5btree4node210Handle$LT$alloc..collections..btree..node..NodeRef$LT$alloc..collections..btree..node..marker..Mut$C$K$C$V$C$alloc..collections..btree..node..marker..Leaf$GT$$C$alloc..collections..btree..node..marker..Edge$GT$6insert17hcc5bd63ead71e416E+0x20c>
   8083c:	d1001eb5 	sub	x21, x21, #0x7
   80840:	92403e88 	and	x8, x20, #0xffff
   80844:	8b090f40 	add	x0, x26, x9, lsl #3
   80848:	cb150108 	sub	x8, x8, x21
   8084c:	8b150f58 	add	x24, x26, x21, lsl #3
   80850:	d37df102 	lsl	x2, x8, #3
   80854:	aa1803e1 	mov	x1, x24
   80858:	aa0903f4 	mov	x20, x9
   8085c:	940025e9 	bl	8a000 <memmove>
   80860:	f9000317 	str	x23, [x24]
   80864:	8b151337 	add	x23, x25, x21, lsl #4
   80868:	794002c8 	ldrh	w8, [x22]
   8086c:	8b141320 	add	x0, x25, x20, lsl #4
   80870:	aa1703e1 	mov	x1, x23
   80874:	cb150108 	sub	x8, x8, x21
   80878:	d37ced02 	lsl	x2, x8, #4
   8087c:	940025e1 	bl	8a000 <memmove>
   80880:	f9401be9 	ldr	x9, [sp, #48]
   80884:	aa1703e8 	mov	x8, x23
   80888:	aa1603fc 	mov	x28, x22
   8088c:	f8008509 	str	x9, [x8], #8
   80890:	f9401fea 	ldr	x10, [sp, #56]
   80894:	79400389 	ldrh	w9, [x28]
   80898:	f900010a 	str	x10, [x8]
   8089c:	52800028 	mov	w8, #0x1                   	// #1
   808a0:	11000529 	add	w9, w9, #0x1
   808a4:	f9000268 	str	x8, [x19]
   808a8:	a94223ea 	ldp	x10, x8, [sp, #32]
   808ac:	a9012a7b 	stp	x27, x10, [x19, #16]
   808b0:	f9000668 	str	x8, [x19, #8]
   808b4:	f9400fe8 	ldr	x8, [sp, #24]
   808b8:	79000389 	strh	w9, [x28]
   808bc:	f900227f 	str	xzr, [x19, #64]
   808c0:	f9001268 	str	x8, [x19, #32]
   808c4:	f9400be8 	ldr	x8, [sp, #16]
   808c8:	f9001668 	str	x8, [x19, #40]
   808cc:	f94007e8 	ldr	x8, [sp, #8]
   808d0:	a9037668 	stp	x8, x29, [x19, #48]
   808d4:	f9002677 	str	x23, [x19, #72]
   808d8:	a95a7bfd 	ldp	x29, x30, [sp, #416]
   808dc:	a9594ff4 	ldp	x20, x19, [sp, #400]
   808e0:	a95857f6 	ldp	x22, x21, [sp, #384]
   808e4:	a9575ff8 	ldp	x24, x23, [sp, #368]
   808e8:	a95667fa 	ldp	x26, x25, [sp, #352]
   808ec:	a9556ffc 	ldp	x28, x27, [sp, #336]
   808f0:	9106c3ff 	add	sp, sp, #0x1b0
   808f4:	d65f03c0 	ret
   808f8:	52802300 	mov	w0, #0x118                 	// #280
   808fc:	52800101 	mov	w1, #0x8                   	// #8
   80900:	94001ac0 	bl	87400 <_ZN5alloc5alloc18handle_alloc_error17h11286e57f71cf9c1E>
   80904:	d4200020 	brk	#0x1

0000000000080908 <_ZN5alloc11collections5btree4node214Handle$LT$alloc..collections..btree..node..NodeRef$LT$alloc..collections..btree..node..marker..Mut$C$K$C$V$C$alloc..collections..btree..node..marker..Internal$GT$$C$alloc..collections..btree..node..marker..Edge$GT$6insert17hb9ca022211a0c636E>:
   80908:	a9ba6ffc 	stp	x28, x27, [sp, #-96]!
   8090c:	a90167fa 	stp	x26, x25, [sp, #16]
   80910:	a9025ff8 	stp	x24, x23, [sp, #32]
   80914:	a90357f6 	stp	x22, x21, [sp, #48]
   80918:	a9044ff4 	stp	x20, x19, [sp, #64]
   8091c:	a9057bfd 	stp	x29, x30, [sp, #80]
   80920:	d10b43ff 	sub	sp, sp, #0x2d0
   80924:	f940041d 	ldr	x29, [x0, #8]
   80928:	aa0303f6 	mov	x22, x3
   8092c:	aa0003f8 	mov	x24, x0
   80930:	aa0203fc 	mov	x28, x2
   80934:	aa0803f3 	mov	x19, x8
   80938:	f90027e4 	str	x4, [sp, #72]
   8093c:	794017a9 	ldrh	w9, [x29, #10]
   80940:	f100293f 	cmp	x9, #0xa
   80944:	540006e8 	b.hi	80a20 <_ZN5alloc11collections5btree4node214Handle$LT$alloc..collections..btree..node..NodeRef$LT$alloc..collections..btree..node..marker..Mut$C$K$C$V$C$alloc..collections..btree..node..marker..Internal$GT$$C$alloc..collections..btree..node..marker..Edge$GT$6insert17hb9ca022211a0c636E+0x118>  // b.pmore
   80948:	f9400f14 	ldr	x20, [x24, #24]
   8094c:	910043a8 	add	x8, x29, #0x10
   80950:	aa0103f9 	mov	x25, x1
   80954:	d37df297 	lsl	x23, x20, #3
   80958:	9100069a 	add	x26, x20, #0x1
   8095c:	8b170115 	add	x21, x8, x23
   80960:	d37df35b 	lsl	x27, x26, #3
   80964:	8b1b0100 	add	x0, x8, x27
   80968:	cb140128 	sub	x8, x9, x20
   8096c:	aa1503e1 	mov	x1, x21
   80970:	d37df102 	lsl	x2, x8, #3
   80974:	940025a3 	bl	8a000 <memmove>
   80978:	f90002b9 	str	x25, [x21]
   8097c:	9101a3a9 	add	x9, x29, #0x68
   80980:	794017a8 	ldrh	w8, [x29, #10]
   80984:	8b141135 	add	x21, x9, x20, lsl #4
   80988:	8b1a1120 	add	x0, x9, x26, lsl #4
   8098c:	aa1503e1 	mov	x1, x21
   80990:	cb140108 	sub	x8, x8, x20
   80994:	d37ced02 	lsl	x2, x8, #4
   80998:	9400259a 	bl	8a000 <memmove>
   8099c:	a9005abc 	stp	x28, x22, [x21]
   809a0:	910463a9 	add	x9, x29, #0x118
   809a4:	794017a8 	ldrh	w8, [x29, #10]
   809a8:	8b1b0135 	add	x21, x9, x27
   809ac:	8b0902e9 	add	x9, x23, x9
   809b0:	aa1503e1 	mov	x1, x21
   809b4:	91004120 	add	x0, x9, #0x10
   809b8:	11000508 	add	w8, w8, #0x1
   809bc:	92403d0a 	and	x10, x8, #0xffff
   809c0:	cb1a0149 	sub	x9, x10, x26
   809c4:	d37df122 	lsl	x2, x9, #3
   809c8:	790017a8 	strh	w8, [x29, #10]
   809cc:	9400258d 	bl	8a000 <memmove>
   809d0:	f94027e8 	ldr	x8, [sp, #72]
   809d4:	f90002a8 	str	x8, [x21]
   809d8:	794017a8 	ldrh	w8, [x29, #10]
   809dc:	eb08035f 	cmp	x26, x8
   809e0:	54000148 	b.hi	80a08 <_ZN5alloc11collections5btree4node214Handle$LT$alloc..collections..btree..node..NodeRef$LT$alloc..collections..btree..node..marker..Mut$C$K$C$V$C$alloc..collections..btree..node..marker..Internal$GT$$C$alloc..collections..btree..node..marker..Edge$GT$6insert17hb9ca022211a0c636E+0x100>  // b.pmore
   809e4:	910483a9 	add	x9, x29, #0x120
   809e8:	aa1403ea 	mov	x10, x20
   809ec:	f86a792b 	ldr	x11, [x9, x10, lsl #3]
   809f0:	9100054c 	add	x12, x10, #0x1
   809f4:	aa0c03ea 	mov	x10, x12
   809f8:	eb08019f 	cmp	x12, x8
   809fc:	7900116c 	strh	w12, [x11, #8]
   80a00:	f900017d 	str	x29, [x11]
   80a04:	54ffff43 	b.cc	809ec <_ZN5alloc11collections5btree4node214Handle$LT$alloc..collections..btree..node..NodeRef$LT$alloc..collections..btree..node..marker..Mut$C$K$C$V$C$alloc..collections..btree..node..marker..Internal$GT$$C$alloc..collections..btree..node..marker..Edge$GT$6insert17hb9ca022211a0c636E+0xe4>  // b.lo, b.ul, b.last
   80a08:	a9402b09 	ldp	x9, x10, [x24]
   80a0c:	aa1f03e8 	mov	x8, xzr
   80a10:	f9400b0b 	ldr	x11, [x24, #16]
   80a14:	a900aa69 	stp	x9, x10, [x19, #8]
   80a18:	a901d26b 	stp	x11, x20, [x19, #24]
   80a1c:	140000b6 	b	80cf4 <_ZN5alloc11collections5btree4node214Handle$LT$alloc..collections..btree..node..NodeRef$LT$alloc..collections..btree..node..marker..Mut$C$K$C$V$C$alloc..collections..btree..node..marker..Internal$GT$$C$alloc..collections..btree..node..marker..Edge$GT$6insert17hb9ca022211a0c636E+0x3ec>
   80a20:	910713e8 	add	x8, sp, #0x1c4
   80a24:	f9400b09 	ldr	x9, [x24, #16]
   80a28:	f90007e1 	str	x1, [sp, #8]
   80a2c:	91001100 	add	x0, x8, #0x4
   80a30:	a902dbfc 	stp	x28, x22, [sp, #40]
   80a34:	52802102 	mov	w2, #0x108                 	// #264
   80a38:	f9400316 	ldr	x22, [x24]
   80a3c:	2a1f03e1 	mov	w1, wzr
   80a40:	f9001fe9 	str	x9, [sp, #56]
   80a44:	94002599 	bl	8a0a8 <memset>
   80a48:	52802182 	mov	w2, #0x10c                 	// #268
   80a4c:	9102e3e0 	add	x0, sp, #0xb8
   80a50:	910713e1 	add	x1, sp, #0x1c4
   80a54:	9400254c 	bl	89f84 <memcpy>
   80a58:	6f00e400 	movi	v0.2d, #0x0
   80a5c:	52802f00 	mov	w0, #0x178                 	// #376
   80a60:	52800101 	mov	w1, #0x8                   	// #8
   80a64:	ad0283e0 	stp	q0, q0, [sp, #80]
   80a68:	ad0383e0 	stp	q0, q0, [sp, #112]
   80a6c:	ad0483e0 	stp	q0, q0, [sp, #144]
   80a70:	940004be 	bl	81d68 <__rust_alloc>
   80a74:	b4001520 	cbz	x0, 80d18 <_ZN5alloc11collections5btree4node214Handle$LT$alloc..collections..btree..node..NodeRef$LT$alloc..collections..btree..node..marker..Mut$C$K$C$V$C$alloc..collections..btree..node..marker..Internal$GT$$C$alloc..collections..btree..node..marker..Edge$GT$6insert17hb9ca022211a0c636E+0x410>
   80a78:	aa0003f5 	mov	x21, x0
   80a7c:	91003000 	add	x0, x0, #0xc
   80a80:	52802182 	mov	w2, #0x10c                 	// #268
   80a84:	9102e3e1 	add	x1, sp, #0xb8
   80a88:	f90002bf 	str	xzr, [x21]
   80a8c:	790016bf 	strh	wzr, [x21, #10]
   80a90:	9400253d 	bl	89f84 <memcpy>
   80a94:	910462ba 	add	x26, x21, #0x118
   80a98:	910143e1 	add	x1, sp, #0x50
   80a9c:	aa1a03e0 	mov	x0, x26
   80aa0:	52800c02 	mov	w2, #0x60                  	// #96
   80aa4:	94002538 	bl	89f84 <memcpy>
   80aa8:	f94023a9 	ldr	x9, [x29, #64]
   80aac:	910042bc 	add	x28, x21, #0x10
   80ab0:	794017a8 	ldrh	w8, [x29, #10]
   80ab4:	910123a1 	add	x1, x29, #0x48
   80ab8:	aa1c03e0 	mov	x0, x28
   80abc:	f9000be9 	str	x9, [sp, #16]
   80ac0:	f94067a9 	ldr	x9, [x29, #200]
   80ac4:	d1001d17 	sub	x23, x8, #0x7
   80ac8:	d37df2e2 	lsl	x2, x23, #3
   80acc:	d1001914 	sub	x20, x8, #0x6
   80ad0:	f9000fe9 	str	x9, [sp, #24]
   80ad4:	f9406ba9 	ldr	x9, [x29, #208]
   80ad8:	f90013e9 	str	x9, [sp, #32]
   80adc:	9400252a 	bl	89f84 <memcpy>
   80ae0:	9101a2bb 	add	x27, x21, #0x68
   80ae4:	910363a1 	add	x1, x29, #0xd8
   80ae8:	aa1b03e0 	mov	x0, x27
   80aec:	d37ceee2 	lsl	x2, x23, #4
   80af0:	94002525 	bl	89f84 <memcpy>
   80af4:	910543a1 	add	x1, x29, #0x150
   80af8:	aa1a03e0 	mov	x0, x26
   80afc:	d37df282 	lsl	x2, x20, #3
   80b00:	94002521 	bl	89f84 <memcpy>
   80b04:	528000c8 	mov	w8, #0x6                   	// #6
   80b08:	790017a8 	strh	w8, [x29, #10]
   80b0c:	790016b7 	strh	w23, [x21, #10]
   80b10:	b4000134 	cbz	x20, 80b34 <_ZN5alloc11collections5btree4node214Handle$LT$alloc..collections..btree..node..NodeRef$LT$alloc..collections..btree..node..marker..Mut$C$K$C$V$C$alloc..collections..btree..node..marker..Internal$GT$$C$alloc..collections..btree..node..marker..Edge$GT$6insert17hb9ca022211a0c636E+0x22c>
   80b14:	aa1f03e8 	mov	x8, xzr
   80b18:	f8687b49 	ldr	x9, [x26, x8, lsl #3]
   80b1c:	9100050a 	add	x10, x8, #0x1
   80b20:	eb0a029f 	cmp	x20, x10
   80b24:	79001128 	strh	w8, [x9, #8]
   80b28:	aa0a03e8 	mov	x8, x10
   80b2c:	f9000135 	str	x21, [x9]
   80b30:	54ffff41 	b.ne	80b18 <_ZN5alloc11collections5btree4node214Handle$LT$alloc..collections..btree..node..NodeRef$LT$alloc..collections..btree..node..marker..Mut$C$K$C$V$C$alloc..collections..btree..node..marker..Internal$GT$$C$alloc..collections..btree..node..marker..Edge$GT$6insert17hb9ca022211a0c636E+0x210>  // b.any
   80b34:	f9400f14 	ldr	x20, [x24, #24]
   80b38:	f90023f6 	str	x22, [sp, #64]
   80b3c:	f1001a97 	subs	x23, x20, #0x6
   80b40:	54000688 	b.hi	80c10 <_ZN5alloc11collections5btree4node214Handle$LT$alloc..collections..btree..node..NodeRef$LT$alloc..collections..btree..node..marker..Mut$C$K$C$V$C$alloc..collections..btree..node..marker..Internal$GT$$C$alloc..collections..btree..node..marker..Edge$GT$6insert17hb9ca022211a0c636E+0x308>  // b.pmore
   80b44:	794017a9 	ldrh	w9, [x29, #10]
   80b48:	910043a8 	add	x8, x29, #0x10
   80b4c:	d37df29b 	lsl	x27, x20, #3
   80b50:	9100069c 	add	x28, x20, #0x1
   80b54:	8b1b0118 	add	x24, x8, x27
   80b58:	d37df396 	lsl	x22, x28, #3
   80b5c:	8b160100 	add	x0, x8, x22
   80b60:	aa1803e1 	mov	x1, x24
   80b64:	cb140128 	sub	x8, x9, x20
   80b68:	9101a3b7 	add	x23, x29, #0x68
   80b6c:	d37df102 	lsl	x2, x8, #3
   80b70:	910463ba 	add	x26, x29, #0x118
   80b74:	94002523 	bl	8a000 <memmove>
   80b78:	f94007e8 	ldr	x8, [sp, #8]
   80b7c:	8b1c12e0 	add	x0, x23, x28, lsl #4
   80b80:	f9000308 	str	x8, [x24]
   80b84:	8b1412f8 	add	x24, x23, x20, lsl #4
   80b88:	794017a8 	ldrh	w8, [x29, #10]
   80b8c:	aa1803e1 	mov	x1, x24
   80b90:	cb140108 	sub	x8, x8, x20
   80b94:	d37ced02 	lsl	x2, x8, #4
   80b98:	9400251a 	bl	8a000 <memmove>
   80b9c:	f94017e8 	ldr	x8, [sp, #40]
   80ba0:	8b160356 	add	x22, x26, x22
   80ba4:	8b1a036a 	add	x10, x27, x26
   80ba8:	aa1603e1 	mov	x1, x22
   80bac:	91004140 	add	x0, x10, #0x10
   80bb0:	f9000308 	str	x8, [x24]
   80bb4:	f9401be8 	ldr	x8, [sp, #48]
   80bb8:	f9000708 	str	x8, [x24, #8]
   80bbc:	794017a8 	ldrh	w8, [x29, #10]
   80bc0:	11000508 	add	w8, w8, #0x1
   80bc4:	92403d09 	and	x9, x8, #0xffff
   80bc8:	cb1c0129 	sub	x9, x9, x28
   80bcc:	d37df122 	lsl	x2, x9, #3
   80bd0:	790017a8 	strh	w8, [x29, #10]
   80bd4:	9400250b 	bl	8a000 <memmove>
   80bd8:	f94027e8 	ldr	x8, [sp, #72]
   80bdc:	f90002c8 	str	x8, [x22]
   80be0:	794017a8 	ldrh	w8, [x29, #10]
   80be4:	eb08029f 	cmp	x20, x8
   80be8:	54000702 	b.cs	80cc8 <_ZN5alloc11collections5btree4node214Handle$LT$alloc..collections..btree..node..NodeRef$LT$alloc..collections..btree..node..marker..Mut$C$K$C$V$C$alloc..collections..btree..node..marker..Internal$GT$$C$alloc..collections..btree..node..marker..Edge$GT$6insert17hb9ca022211a0c636E+0x3c0>  // b.hs, b.nlast
   80bec:	910483a9 	add	x9, x29, #0x120
   80bf0:	f874792a 	ldr	x10, [x9, x20, lsl #3]
   80bf4:	9100068b 	add	x11, x20, #0x1
   80bf8:	aa0b03f4 	mov	x20, x11
   80bfc:	eb0b011f 	cmp	x8, x11
   80c00:	7900114b 	strh	w11, [x10, #8]
   80c04:	f900015d 	str	x29, [x10]
   80c08:	54ffff41 	b.ne	80bf0 <_ZN5alloc11collections5btree4node214Handle$LT$alloc..collections..btree..node..NodeRef$LT$alloc..collections..btree..node..marker..Mut$C$K$C$V$C$alloc..collections..btree..node..marker..Internal$GT$$C$alloc..collections..btree..node..marker..Edge$GT$6insert17hb9ca022211a0c636E+0x2e8>  // b.any
   80c0c:	1400002f 	b	80cc8 <_ZN5alloc11collections5btree4node214Handle$LT$alloc..collections..btree..node..NodeRef$LT$alloc..collections..btree..node..marker..Mut$C$K$C$V$C$alloc..collections..btree..node..marker..Internal$GT$$C$alloc..collections..btree..node..marker..Edge$GT$6insert17hb9ca022211a0c636E+0x3c0>
   80c10:	794016a8 	ldrh	w8, [x21, #10]
   80c14:	d1001e96 	sub	x22, x20, #0x7
   80c18:	d37df2f9 	lsl	x25, x23, #3
   80c1c:	8b190380 	add	x0, x28, x25
   80c20:	8b160f98 	add	x24, x28, x22, lsl #3
   80c24:	aa1803e1 	mov	x1, x24
   80c28:	cb160108 	sub	x8, x8, x22
   80c2c:	d37df102 	lsl	x2, x8, #3
   80c30:	940024f4 	bl	8a000 <memmove>
   80c34:	f94007e8 	ldr	x8, [sp, #8]
   80c38:	8b171360 	add	x0, x27, x23, lsl #4
   80c3c:	f9000308 	str	x8, [x24]
   80c40:	8b161378 	add	x24, x27, x22, lsl #4
   80c44:	794016a8 	ldrh	w8, [x21, #10]
   80c48:	aa1803e1 	mov	x1, x24
   80c4c:	cb160108 	sub	x8, x8, x22
   80c50:	d37ced02 	lsl	x2, x8, #4
   80c54:	940024eb 	bl	8a000 <memmove>
   80c58:	f94017e8 	ldr	x8, [sp, #40]
   80c5c:	8b190356 	add	x22, x26, x25
   80c60:	8b140f4a 	add	x10, x26, x20, lsl #3
   80c64:	aa1603e1 	mov	x1, x22
   80c68:	d100a140 	sub	x0, x10, #0x28
   80c6c:	f9000308 	str	x8, [x24]
   80c70:	f9401be8 	ldr	x8, [sp, #48]
   80c74:	f9000708 	str	x8, [x24, #8]
   80c78:	794016a8 	ldrh	w8, [x21, #10]
   80c7c:	11000508 	add	w8, w8, #0x1
   80c80:	92403d09 	and	x9, x8, #0xffff
   80c84:	cb170129 	sub	x9, x9, x23
   80c88:	d37df122 	lsl	x2, x9, #3
   80c8c:	790016a8 	strh	w8, [x21, #10]
   80c90:	940024dc 	bl	8a000 <memmove>
   80c94:	f94027e8 	ldr	x8, [sp, #72]
   80c98:	f90002c8 	str	x8, [x22]
   80c9c:	794016a8 	ldrh	w8, [x21, #10]
   80ca0:	eb0802ff 	cmp	x23, x8
   80ca4:	54000128 	b.hi	80cc8 <_ZN5alloc11collections5btree4node214Handle$LT$alloc..collections..btree..node..NodeRef$LT$alloc..collections..btree..node..marker..Mut$C$K$C$V$C$alloc..collections..btree..node..marker..Internal$GT$$C$alloc..collections..btree..node..marker..Edge$GT$6insert17hb9ca022211a0c636E+0x3c0>  // b.pmore
   80ca8:	9103a2a9 	add	x9, x21, #0xe8
   80cac:	f874792a 	ldr	x10, [x9, x20, lsl #3]
   80cb0:	d1001a8b 	sub	x11, x20, #0x6
   80cb4:	91000694 	add	x20, x20, #0x1
   80cb8:	eb08017f 	cmp	x11, x8
   80cbc:	f9000155 	str	x21, [x10]
   80cc0:	7900114b 	strh	w11, [x10, #8]
   80cc4:	54ffff43 	b.cc	80cac <_ZN5alloc11collections5btree4node214Handle$LT$alloc..collections..btree..node..NodeRef$LT$alloc..collections..btree..node..marker..Mut$C$K$C$V$C$alloc..collections..btree..node..marker..Internal$GT$$C$alloc..collections..btree..node..marker..Edge$GT$6insert17hb9ca022211a0c636E+0x3a4>  // b.lo, b.ul, b.last
   80cc8:	a943a7e8 	ldp	x8, x9, [sp, #56]
   80ccc:	f9000e68 	str	x8, [x19, #24]
   80cd0:	f9400be8 	ldr	x8, [sp, #16]
   80cd4:	a900f669 	stp	x9, x29, [x19, #8]
   80cd8:	f9002269 	str	x9, [x19, #64]
   80cdc:	f9001268 	str	x8, [x19, #32]
   80ce0:	f9400fe8 	ldr	x8, [sp, #24]
   80ce4:	f9001668 	str	x8, [x19, #40]
   80ce8:	f94013e8 	ldr	x8, [sp, #32]
   80cec:	a9035668 	stp	x8, x21, [x19, #48]
   80cf0:	52800028 	mov	w8, #0x1                   	// #1
   80cf4:	f9000268 	str	x8, [x19]
   80cf8:	910b43ff 	add	sp, sp, #0x2d0
   80cfc:	a9457bfd 	ldp	x29, x30, [sp, #80]
   80d00:	a9444ff4 	ldp	x20, x19, [sp, #64]
   80d04:	a94357f6 	ldp	x22, x21, [sp, #48]
   80d08:	a9425ff8 	ldp	x24, x23, [sp, #32]
   80d0c:	a94167fa 	ldp	x26, x25, [sp, #16]
   80d10:	a8c66ffc 	ldp	x28, x27, [sp], #96
   80d14:	d65f03c0 	ret
   80d18:	52802f00 	mov	w0, #0x178                 	// #376
   80d1c:	52800101 	mov	w1, #0x8                   	// #8
   80d20:	940019b8 	bl	87400 <_ZN5alloc5alloc18handle_alloc_error17h11286e57f71cf9c1E>
   80d24:	d4200020 	brk	#0x1

0000000000080d28 <_ZN5alloc11collections5btree6search11search_tree17h98dfec08e1b8dbb8E>:
   80d28:	f940002c 	ldr	x12, [x1]
   80d2c:	a940240b 	ldp	x11, x9, [x0]
   80d30:	f940080a 	ldr	x10, [x0, #16]
   80d34:	7940152d 	ldrh	w13, [x9, #10]
   80d38:	5280004f 	mov	w15, #0x2                   	// #2
   80d3c:	d37df1b0 	lsl	x16, x13, #3
   80d40:	b4000190 	cbz	x16, 80d70 <_ZN5alloc11collections5btree6search11search_tree17h98dfec08e1b8dbb8E+0x48>
   80d44:	f86f792e 	ldr	x14, [x9, x15, lsl #3]
   80d48:	910005ef 	add	x15, x15, #0x1
   80d4c:	eb0c01df 	cmp	x14, x12
   80d50:	1a9f07ee 	cset	w14, ne  // ne = any
   80d54:	da9f91ce 	csinv	x14, x14, xzr, ls  // ls = plast
   80d58:	b10005df 	cmn	x14, #0x1
   80d5c:	54000080 	b.eq	80d6c <_ZN5alloc11collections5btree6search11search_tree17h98dfec08e1b8dbb8E+0x44>  // b.none
   80d60:	d1002210 	sub	x16, x16, #0x8
   80d64:	b5fffeee 	cbnz	x14, 80d40 <_ZN5alloc11collections5btree6search11search_tree17h98dfec08e1b8dbb8E+0x18>
   80d68:	14000009 	b	80d8c <_ZN5alloc11collections5btree6search11search_tree17h98dfec08e1b8dbb8E+0x64>
   80d6c:	d1000ded 	sub	x13, x15, #0x3
   80d70:	b400018b 	cbz	x11, 80da0 <_ZN5alloc11collections5btree6search11search_tree17h98dfec08e1b8dbb8E+0x78>
   80d74:	8b0d0d29 	add	x9, x9, x13, lsl #3
   80d78:	d100056b 	sub	x11, x11, #0x1
   80d7c:	f9408d29 	ldr	x9, [x9, #280]
   80d80:	f900080a 	str	x10, [x0, #16]
   80d84:	a900240b 	stp	x11, x9, [x0]
   80d88:	17ffffeb 	b	80d34 <_ZN5alloc11collections5btree6search11search_tree17h98dfec08e1b8dbb8E+0xc>
   80d8c:	d1000ded 	sub	x13, x15, #0x3
   80d90:	a9002d0e 	stp	x14, x11, [x8]
   80d94:	a9012909 	stp	x9, x10, [x8, #16]
   80d98:	f900110d 	str	x13, [x8, #32]
   80d9c:	d65f03c0 	ret
   80da0:	5280002e 	mov	w14, #0x1                   	// #1
   80da4:	a9002d0e 	stp	x14, x11, [x8]
   80da8:	a9012909 	stp	x9, x10, [x8, #16]
   80dac:	f900110d 	str	x13, [x8, #32]
   80db0:	d65f03c0 	ret
   80db4:	00000000 	.inst	0x00000000 ; undefined

0000000000080db8 <_ZN17ruspiro_singleton18Singleton$LT$T$GT$8take_for17hf1c6e0fe436b4d7eE>:
   80db8:	d10603ff 	sub	sp, sp, #0x180
   80dbc:	a9136bfc 	stp	x28, x26, [sp, #304]
   80dc0:	a91463f9 	stp	x25, x24, [sp, #320]
   80dc4:	a9155bf7 	stp	x23, x22, [sp, #336]
   80dc8:	a91653f5 	stp	x21, x20, [sp, #352]
   80dcc:	a9177bf3 	stp	x19, x30, [sp, #368]
   80dd0:	aa0103f4 	mov	x20, x1
   80dd4:	aa0003f3 	mov	x19, x0
   80dd8:	94001940 	bl	872d8 <_ZN12ruspiro_lock8spinlock8Spinlock6aquire17h93e053530659f177E>
   80ddc:	910123e0 	add	x0, sp, #0x48
   80de0:	aa1403e1 	mov	x1, x20
   80de4:	52800702 	mov	w2, #0x38                  	// #56
   80de8:	94002467 	bl	89f84 <memcpy>
   80dec:	aa1303f4 	mov	x20, x19
   80df0:	f8418e88 	ldr	x8, [x20, #24]!
   80df4:	b5000628 	cbnz	x8, 80eb8 <_ZN17ruspiro_singleton18Singleton$LT$T$GT$8take_for17hf1c6e0fe436b4d7eE+0x100>
   80df8:	910383e8 	add	x8, sp, #0xe0
   80dfc:	940013d5 	bl	85d50 <_ZN13ruspiro_timer8schedule9Schedules3new17haabb1e685a21967dE>
   80e00:	f9407be8 	ldr	x8, [sp, #240]
   80e04:	f9000be8 	str	x8, [sp, #16]
   80e08:	a94fa7e8 	ldp	x8, x9, [sp, #248]
   80e0c:	f9000fe8 	str	x8, [sp, #24]
   80e10:	f94073e8 	ldr	x8, [sp, #224]
   80e14:	f90003e8 	str	x8, [sp]
   80e18:	f94077e8 	ldr	x8, [sp, #232]
   80e1c:	f90007e8 	str	x8, [sp, #8]
   80e20:	ad4003e1 	ldp	q1, q0, [sp]
   80e24:	ad408e62 	ldp	q2, q3, [x19, #16]
   80e28:	f94087e8 	ldr	x8, [sp, #264]
   80e2c:	a9432e6a 	ldp	x10, x11, [x19, #48]
   80e30:	ad008261 	stp	q1, q0, [x19, #16]
   80e34:	a9032269 	stp	x9, x8, [x19, #48]
   80e38:	ad010be3 	stp	q3, q2, [sp, #32]
   80e3c:	f94013e8 	ldr	x8, [sp, #32]
   80e40:	a90cafea 	stp	x10, x11, [sp, #200]
   80e44:	aa0b03ea 	mov	x10, x11
   80e48:	f94067eb 	ldr	x11, [sp, #200]
   80e4c:	f9004be8 	str	x8, [sp, #144]
   80e50:	f94017e8 	ldr	x8, [sp, #40]
   80e54:	a90a2beb 	stp	x11, x10, [sp, #160]
   80e58:	f9004fe8 	str	x8, [sp, #152]
   80e5c:	a94327e8 	ldp	x8, x9, [sp, #48]
   80e60:	a90827e8 	stp	x8, x9, [sp, #128]
   80e64:	4e183c48 	mov	x8, v2.d[1]
   80e68:	b4000088 	cbz	x8, 80e78 <_ZN17ruspiro_singleton18Singleton$LT$T$GT$8take_for17hf1c6e0fe436b4d7eE+0xc0>
   80e6c:	910203e8 	add	x8, sp, #0x80
   80e70:	91002100 	add	x0, x8, #0x8
   80e74:	97fffd91 	bl	804b8 <_ZN95_$LT$alloc..collections..btree..map..BTreeMap$LT$K$C$V$GT$$u20$as$u20$core..ops..drop..Drop$GT$4drop17he8bf8918e7498e61E>
   80e78:	d0000048 	adrp	x8, 8a000 <memmove>
   80e7c:	52800049 	mov	w9, #0x2                   	// #2
   80e80:	f9408108 	ldr	x8, [x8, #256]
   80e84:	b9000109 	str	w9, [x8]
   80e88:	d0000075 	adrp	x21, 8e000 <_ZN4core3fmt3num14DEC_DIGITS_LUT17h46bba502bada2534E+0x1c0>
   80e8c:	f94476b5 	ldr	x21, [x21, #2280]
   80e90:	aa1503e0 	mov	x0, x21
   80e94:	94001911 	bl	872d8 <_ZN12ruspiro_lock8spinlock8Spinlock6aquire17h93e053530659f177E>
   80e98:	910042a0 	add	x0, x21, #0x10
   80e9c:	52800021 	mov	w1, #0x1                   	// #1
   80ea0:	9400167e 	bl	86898 <_ZN17ruspiro_interrupt16InterruptManager8activate17h02f29a9347cec033E>
   80ea4:	d0000060 	adrp	x0, 8e000 <_ZN4core3fmt3num14DEC_DIGITS_LUT17h46bba502bada2534E+0x1c0>
   80ea8:	f9447400 	ldr	x0, [x0, #2280]
   80eac:	94001915 	bl	87300 <_ZN12ruspiro_lock8spinlock8Spinlock7release17h540c080833faeca3E>
   80eb0:	f9400288 	ldr	x8, [x20]
   80eb4:	b4001448 	cbz	x8, 8113c <_ZN17ruspiro_singleton18Singleton$LT$T$GT$8take_for17hf1c6e0fe436b4d7eE+0x384>
   80eb8:	f9401a68 	ldr	x8, [x19, #48]
   80ebc:	d1002295 	sub	x21, x20, #0x8
   80ec0:	f9401e69 	ldr	x9, [x19, #56]
   80ec4:	b40000c9 	cbz	x9, 80edc <_ZN17ruspiro_singleton18Singleton$LT$T$GT$8take_for17hf1c6e0fe436b4d7eE+0x124>
   80ec8:	d1000508 	sub	x8, x8, #0x1
   80ecc:	eb09011f 	cmp	x8, x9
   80ed0:	54000061 	b.ne	80edc <_ZN17ruspiro_singleton18Singleton$LT$T$GT$8take_for17hf1c6e0fe436b4d7eE+0x124>  // b.any
   80ed4:	aa1503e0 	mov	x0, x21
   80ed8:	940013a4 	bl	85d68 <_ZN13ruspiro_timer8schedule9Schedules6shrink17h1f1bfbc046d93201E>
   80edc:	f94027e8 	ldr	x8, [sp, #72]
   80ee0:	910383e0 	add	x0, sp, #0xe0
   80ee4:	52800602 	mov	w2, #0x30                  	// #48
   80ee8:	f9400116 	ldr	x22, [x8]
   80eec:	910123e8 	add	x8, sp, #0x48
   80ef0:	91002101 	add	x1, x8, #0x8
   80ef4:	94002424 	bl	89f84 <memcpy>
   80ef8:	52800600 	mov	w0, #0x30                  	// #48
   80efc:	52800101 	mov	w1, #0x8                   	// #8
   80f00:	9400039a 	bl	81d68 <__rust_alloc>
   80f04:	b4001480 	cbz	x0, 81194 <_ZN17ruspiro_singleton18Singleton$LT$T$GT$8take_for17hf1c6e0fe436b4d7eE+0x3dc>
   80f08:	910383e1 	add	x1, sp, #0xe0
   80f0c:	52800602 	mov	w2, #0x30                  	// #48
   80f10:	aa0003f7 	mov	x23, x0
   80f14:	9400241c 	bl	89f84 <memcpy>
   80f18:	b0000063 	adrp	x3, 8d000 <GCC_except_table3+0xa5c>
   80f1c:	910383e8 	add	x8, sp, #0xe0
   80f20:	911b4063 	add	x3, x3, #0x6d0
   80f24:	aa1403e0 	mov	x0, x20
   80f28:	aa1603e1 	mov	x1, x22
   80f2c:	aa1703e2 	mov	x2, x23
   80f30:	97fffcaa 	bl	801d8 <_ZN5alloc11collections5btree3map21BTreeMap$LT$K$C$V$GT$6insert17h7963dd2ba15c2205E>
   80f34:	f94073e8 	ldr	x8, [sp, #224]
   80f38:	b4000188 	cbz	x8, 80f68 <_ZN17ruspiro_singleton18Singleton$LT$T$GT$8take_for17hf1c6e0fe436b4d7eE+0x1b0>
   80f3c:	f94077f6 	ldr	x22, [sp, #232]
   80f40:	b4000156 	cbz	x22, 80f68 <_ZN17ruspiro_singleton18Singleton$LT$T$GT$8take_for17hf1c6e0fe436b4d7eE+0x1b0>
   80f44:	f9407bf7 	ldr	x23, [sp, #240]
   80f48:	f94002e8 	ldr	x8, [x23]
   80f4c:	aa1603e0 	mov	x0, x22
   80f50:	d63f0100 	blr	x8
   80f54:	f94006e1 	ldr	x1, [x23, #8]
   80f58:	b4000081 	cbz	x1, 80f68 <_ZN17ruspiro_singleton18Singleton$LT$T$GT$8take_for17hf1c6e0fe436b4d7eE+0x1b0>
   80f5c:	f9400ae2 	ldr	x2, [x23, #16]
   80f60:	aa1603e0 	mov	x0, x22
   80f64:	94000385 	bl	81d78 <__rust_dealloc>
   80f68:	c8dffea9 	ldar	x9, [x21]
   80f6c:	b0000079 	adrp	x25, 8d000 <GCC_except_table3+0xa5c>
   80f70:	f94027e8 	ldr	x8, [sp, #72]
   80f74:	b0000018 	adrp	x24, 81000 <_ZN17ruspiro_singleton18Singleton$LT$T$GT$8take_for17hf1c6e0fe436b4d7eE+0x248>
   80f78:	b0000017 	adrp	x23, 81000 <_ZN17ruspiro_singleton18Singleton$LT$T$GT$8take_for17hf1c6e0fe436b4d7eE+0x248>
   80f7c:	b0000076 	adrp	x22, 8d000 <GCC_except_table3+0xa5c>
   80f80:	911c8339 	add	x25, x25, #0x720
   80f84:	91196318 	add	x24, x24, #0x658
   80f88:	911822f7 	add	x23, x23, #0x608
   80f8c:	911bc2d6 	add	x22, x22, #0x6f0
   80f90:	f9400108 	ldr	x8, [x8]
   80f94:	d1000529 	sub	x9, x9, #0x1
   80f98:	eb08013f 	cmp	x9, x8
   80f9c:	540006c3 	b.cc	81074 <_ZN17ruspiro_singleton18Singleton$LT$T$GT$8take_for17hf1c6e0fe436b4d7eE+0x2bc>  // b.lo, b.ul, b.last
   80fa0:	c89ffea8 	stlr	x8, [x21]
   80fa4:	d0000048 	adrp	x8, 8a000 <memmove>
   80fa8:	f94027e9 	ldr	x9, [sp, #72]
   80fac:	d000006a 	adrp	x10, 8e000 <_ZN4core3fmt3num14DEC_DIGITS_LUT17h46bba502bada2534E+0x1c0>
   80fb0:	5280002b 	mov	w11, #0x1                   	// #1
   80fb4:	910323fa 	add	x26, sp, #0xc8
   80fb8:	f9408508 	ldr	x8, [x8, #264]
   80fbc:	f9400129 	ldr	x9, [x9]
   80fc0:	f9447d4a 	ldr	x10, [x10, #2296]
   80fc4:	b9000109 	str	w9, [x8]
   80fc8:	b0000068 	adrp	x8, 8d000 <GCC_except_table3+0xa5c>
   80fcc:	f94027e9 	ldr	x9, [sp, #72]
   80fd0:	911cc108 	add	x8, x8, #0x730
   80fd4:	a90f7fff 	stp	xzr, xzr, [sp, #240]
   80fd8:	a9102ffa 	stp	x26, x11, [sp, #256]
   80fdc:	a90e2fe8 	stp	x8, x11, [sp, #224]
   80fe0:	a90cabe9 	stp	x9, x10, [sp, #200]
   80fe4:	910203e8 	add	x8, sp, #0x80
   80fe8:	910383e0 	add	x0, sp, #0xe0
   80fec:	910203f5 	add	x21, sp, #0x80
   80ff0:	9400190e 	bl	87428 <_ZN5alloc3fmt6format17hafdd08834ed4019dE>
   80ff4:	9e670320 	fmov	d0, x25
   80ff8:	f94043ea 	ldr	x10, [sp, #128]
   80ffc:	a948a3e9 	ldp	x9, x8, [sp, #136]
   81000:	a90fd7ff 	stp	xzr, x21, [sp, #248]
   81004:	a9095ffa 	stp	x26, x23, [sp, #144]
   81008:	a90ca7ea 	stp	x10, x9, [sp, #200]
   8100c:	52800069 	mov	w9, #0x3                   	// #3
   81010:	4e181f00 	mov	v0.d[1], x24
   81014:	a90ddbe8 	stp	x8, x22, [sp, #216]
   81018:	52800048 	mov	w8, #0x2                   	// #2
   8101c:	a90effe9 	stp	x9, xzr, [sp, #232]
   81020:	f90087e8 	str	x8, [sp, #264]
   81024:	3d8023e0 	str	q0, [sp, #128]
   81028:	9102c3e8 	add	x8, sp, #0xb0
   8102c:	910383e0 	add	x0, sp, #0xe0
   81030:	940018fe 	bl	87428 <_ZN5alloc3fmt6format17hafdd08834ed4019dE>
   81034:	f9406be1 	ldr	x1, [sp, #208]
   81038:	b4000081 	cbz	x1, 81048 <_ZN17ruspiro_singleton18Singleton$LT$T$GT$8take_for17hf1c6e0fe436b4d7eE+0x290>
   8103c:	f94067e0 	ldr	x0, [sp, #200]
   81040:	52800022 	mov	w2, #0x1                   	// #1
   81044:	9400034d 	bl	81d78 <__rust_dealloc>
   81048:	a94b23f5 	ldp	x21, x8, [sp, #176]
   8104c:	f94063e1 	ldr	x1, [sp, #192]
   81050:	a90e23f5 	stp	x21, x8, [sp, #224]
   81054:	f9007be1 	str	x1, [sp, #240]
   81058:	aa1503e0 	mov	x0, x21
   8105c:	94001889 	bl	87280 <_ZN15ruspiro_console5print17h057cac26d371b76dE>
   81060:	f94077e1 	ldr	x1, [sp, #232]
   81064:	b4000081 	cbz	x1, 81074 <_ZN17ruspiro_singleton18Singleton$LT$T$GT$8take_for17hf1c6e0fe436b4d7eE+0x2bc>
   81068:	aa1503e0 	mov	x0, x21
   8106c:	52800022 	mov	w2, #0x1                   	// #1
   81070:	94000342 	bl	81d78 <__rust_dealloc>
   81074:	b0000069 	adrp	x9, 8e000 <_ZN4core3fmt3num14DEC_DIGITS_LUT17h46bba502bada2534E+0x1c0>
   81078:	f9400a88 	ldr	x8, [x20, #16]
   8107c:	9000006b 	adrp	x11, 8d000 <GCC_except_table3+0xa5c>
   81080:	9102c3ea 	add	x10, sp, #0xb0
   81084:	911d016b 	add	x11, x11, #0x740
   81088:	5280002c 	mov	w12, #0x1                   	// #1
   8108c:	f9444929 	ldr	x9, [x9, #2192]
   81090:	910323f5 	add	x21, sp, #0xc8
   81094:	f9005be8 	str	x8, [sp, #176]
   81098:	a90e33eb 	stp	x11, x12, [sp, #224]
   8109c:	a90f7fff 	stp	xzr, xzr, [sp, #240]
   810a0:	a90ca7ea 	stp	x10, x9, [sp, #200]
   810a4:	a91033f5 	stp	x21, x12, [sp, #256]
   810a8:	910203e8 	add	x8, sp, #0x80
   810ac:	910383e0 	add	x0, sp, #0xe0
   810b0:	910203f4 	add	x20, sp, #0x80
   810b4:	940018dd 	bl	87428 <_ZN5alloc3fmt6format17hafdd08834ed4019dE>
   810b8:	9e670320 	fmov	d0, x25
   810bc:	f94043ea 	ldr	x10, [sp, #128]
   810c0:	a948a3e9 	ldp	x9, x8, [sp, #136]
   810c4:	a90fd3ff 	stp	xzr, x20, [sp, #248]
   810c8:	a9095ff5 	stp	x21, x23, [sp, #144]
   810cc:	a90ca7ea 	stp	x10, x9, [sp, #200]
   810d0:	52800069 	mov	w9, #0x3                   	// #3
   810d4:	4e181f00 	mov	v0.d[1], x24
   810d8:	a90ddbe8 	stp	x8, x22, [sp, #216]
   810dc:	52800048 	mov	w8, #0x2                   	// #2
   810e0:	a90effe9 	stp	x9, xzr, [sp, #232]
   810e4:	f90087e8 	str	x8, [sp, #264]
   810e8:	3d8023e0 	str	q0, [sp, #128]
   810ec:	9102c3e8 	add	x8, sp, #0xb0
   810f0:	910383e0 	add	x0, sp, #0xe0
   810f4:	940018cd 	bl	87428 <_ZN5alloc3fmt6format17hafdd08834ed4019dE>
   810f8:	f9406be1 	ldr	x1, [sp, #208]
   810fc:	b4000081 	cbz	x1, 8110c <_ZN17ruspiro_singleton18Singleton$LT$T$GT$8take_for17hf1c6e0fe436b4d7eE+0x354>
   81100:	f94067e0 	ldr	x0, [sp, #200]
   81104:	52800022 	mov	w2, #0x1                   	// #1
   81108:	9400031c 	bl	81d78 <__rust_dealloc>
   8110c:	a94b23f4 	ldp	x20, x8, [sp, #176]
   81110:	f94063e1 	ldr	x1, [sp, #192]
   81114:	a90e23f4 	stp	x20, x8, [sp, #224]
   81118:	f9007be1 	str	x1, [sp, #240]
   8111c:	aa1403e0 	mov	x0, x20
   81120:	94001858 	bl	87280 <_ZN15ruspiro_console5print17h057cac26d371b76dE>
   81124:	f94077e1 	ldr	x1, [sp, #232]
   81128:	b4000241 	cbz	x1, 81170 <_ZN17ruspiro_singleton18Singleton$LT$T$GT$8take_for17hf1c6e0fe436b4d7eE+0x3b8>
   8112c:	aa1403e0 	mov	x0, x20
   81130:	52800022 	mov	w2, #0x1                   	// #1
   81134:	94000311 	bl	81d78 <__rust_dealloc>
   81138:	1400000e 	b	81170 <_ZN17ruspiro_singleton18Singleton$LT$T$GT$8take_for17hf1c6e0fe436b4d7eE+0x3b8>
   8113c:	910123e9 	add	x9, sp, #0x48
   81140:	f9402be8 	ldr	x8, [sp, #80]
   81144:	91002120 	add	x0, x9, #0x8
   81148:	c85f7d09 	ldxr	x9, [x8]
   8114c:	f1000529 	subs	x9, x9, #0x1
   81150:	c80afd09 	stlxr	w10, x9, [x8]
   81154:	35ffffaa 	cbnz	w10, 81148 <_ZN17ruspiro_singleton18Singleton$LT$T$GT$8take_for17hf1c6e0fe436b4d7eE+0x390>
   81158:	54000061 	b.ne	81164 <_ZN17ruspiro_singleton18Singleton$LT$T$GT$8take_for17hf1c6e0fe436b4d7eE+0x3ac>  // b.any
   8115c:	d50339bf 	dmb	ishld
   81160:	94000130 	bl	81620 <_ZN5alloc4sync12Arc$LT$T$GT$9drop_slow17h4b104dfef6354cb2E>
   81164:	910123e8 	add	x8, sp, #0x48
   81168:	91004100 	add	x0, x8, #0x10
   8116c:	94000709 	bl	82d90 <_ZN79_$LT$ruspiro_brain..thoughts..waker..Waker$u20$as$u20$core..ops..drop..Drop$GT$4drop17h7df6c25be8e2a326E>
   81170:	aa1303e0 	mov	x0, x19
   81174:	94001863 	bl	87300 <_ZN12ruspiro_lock8spinlock8Spinlock7release17h540c080833faeca3E>
   81178:	a9577bf3 	ldp	x19, x30, [sp, #368]
   8117c:	a95653f5 	ldp	x21, x20, [sp, #352]
   81180:	a9555bf7 	ldp	x23, x22, [sp, #336]
   81184:	a95463f9 	ldp	x25, x24, [sp, #320]
   81188:	a9536bfc 	ldp	x28, x26, [sp, #304]
   8118c:	910603ff 	add	sp, sp, #0x180
   81190:	d65f03c0 	ret
   81194:	52800600 	mov	w0, #0x30                  	// #48
   81198:	52800101 	mov	w1, #0x8                   	// #8
   8119c:	94001899 	bl	87400 <_ZN5alloc5alloc18handle_alloc_error17h11286e57f71cf9c1E>
   811a0:	d4200020 	brk	#0x1
   811a4:	910123e8 	add	x8, sp, #0x48
   811a8:	aa0003f3 	mov	x19, x0
   811ac:	91004100 	add	x0, x8, #0x10
   811b0:	94000108 	bl	815d0 <_ZN4core3ptr18real_drop_in_place17heb1faf21e92f2cd3E>
   811b4:	14000030 	b	81274 <_ZN17ruspiro_singleton18Singleton$LT$T$GT$8take_for17hf1c6e0fe436b4d7eE+0x4bc>
   811b8:	aa0003f3 	mov	x19, x0
   811bc:	aa1603e0 	mov	x0, x22
   811c0:	aa1703e1 	mov	x1, x23
   811c4:	9400010b 	bl	815f0 <_ZN5alloc5alloc8box_free17h3eaf163627febce4E>
   811c8:	aa1303e0 	mov	x0, x19
   811cc:	94000ac9 	bl	83cf0 <_Unwind_Resume>
   811d0:	d4200020 	brk	#0x1
   811d4:	14000002 	b	811dc <_ZN17ruspiro_singleton18Singleton$LT$T$GT$8take_for17hf1c6e0fe436b4d7eE+0x424>
   811d8:	14000001 	b	811dc <_ZN17ruspiro_singleton18Singleton$LT$T$GT$8take_for17hf1c6e0fe436b4d7eE+0x424>
   811dc:	aa0003f3 	mov	x19, x0
   811e0:	1400001c 	b	81250 <_ZN17ruspiro_singleton18Singleton$LT$T$GT$8take_for17hf1c6e0fe436b4d7eE+0x498>
   811e4:	aa0003f3 	mov	x19, x0
   811e8:	910383e0 	add	x0, sp, #0xe0
   811ec:	940000fb 	bl	815d8 <_ZN4core3ptr18real_drop_in_place17hfbd399c3a3a141bdE>
   811f0:	14000021 	b	81274 <_ZN17ruspiro_singleton18Singleton$LT$T$GT$8take_for17hf1c6e0fe436b4d7eE+0x4bc>
   811f4:	aa0003f3 	mov	x19, x0
   811f8:	910323e0 	add	x0, sp, #0xc8
   811fc:	940000f7 	bl	815d8 <_ZN4core3ptr18real_drop_in_place17hfbd399c3a3a141bdE>
   81200:	1400001d 	b	81274 <_ZN17ruspiro_singleton18Singleton$LT$T$GT$8take_for17hf1c6e0fe436b4d7eE+0x4bc>
   81204:	aa0003f3 	mov	x19, x0
   81208:	910383e0 	add	x0, sp, #0xe0
   8120c:	940000f3 	bl	815d8 <_ZN4core3ptr18real_drop_in_place17hfbd399c3a3a141bdE>
   81210:	14000019 	b	81274 <_ZN17ruspiro_singleton18Singleton$LT$T$GT$8take_for17hf1c6e0fe436b4d7eE+0x4bc>
   81214:	aa0003f3 	mov	x19, x0
   81218:	910323e0 	add	x0, sp, #0xc8
   8121c:	940000ef 	bl	815d8 <_ZN4core3ptr18real_drop_in_place17hfbd399c3a3a141bdE>
   81220:	14000015 	b	81274 <_ZN17ruspiro_singleton18Singleton$LT$T$GT$8take_for17hf1c6e0fe436b4d7eE+0x4bc>
   81224:	aa0003f3 	mov	x19, x0
   81228:	aa1303e0 	mov	x0, x19
   8122c:	94000ab1 	bl	83cf0 <_Unwind_Resume>
   81230:	d4200020 	brk	#0x1
   81234:	aa0003f3 	mov	x19, x0
   81238:	aa1403e0 	mov	x0, x20
   8123c:	940000af 	bl	814f8 <_ZN4core3ptr18real_drop_in_place17h811c6e2bdfdb79d8E>
   81240:	aa1303e0 	mov	x0, x19
   81244:	94000aab 	bl	83cf0 <_Unwind_Resume>
   81248:	d4200020 	brk	#0x1
   8124c:	aa0003f3 	mov	x19, x0
   81250:	910123e8 	add	x8, sp, #0x48
   81254:	91002100 	add	x0, x8, #0x8
   81258:	940000c8 	bl	81578 <_ZN4core3ptr18real_drop_in_place17hb42a928b7cfb09ffE>
   8125c:	14000006 	b	81274 <_ZN17ruspiro_singleton18Singleton$LT$T$GT$8take_for17hf1c6e0fe436b4d7eE+0x4bc>
   81260:	aa0003f3 	mov	x19, x0
   81264:	aa1303e0 	mov	x0, x19
   81268:	94000aa2 	bl	83cf0 <_Unwind_Resume>
   8126c:	d4200020 	brk	#0x1
   81270:	aa0003f3 	mov	x19, x0
   81274:	aa1303e0 	mov	x0, x19
   81278:	94000a9e 	bl	83cf0 <_Unwind_Resume>
   8127c:	d4200020 	brk	#0x1

0000000000081280 <_ZN4core3ops8function6FnOnce40call_once$u7b$$u7b$vtable.shim$u7d$$u7d$17h20902b3a40784a5eE>:
   81280:	d10283ff 	sub	sp, sp, #0xa0
   81284:	a906dbff 	stp	xzr, x22, [sp, #104]
   81288:	a90853f5 	stp	x21, x20, [sp, #128]
   8128c:	a9097bf3 	stp	x19, x30, [sp, #144]
   81290:	90000068 	adrp	x8, 8d000 <GCC_except_table3+0xa5c>
   81294:	52800034 	mov	w20, #0x1                   	// #1
   81298:	911dc108 	add	x8, x8, #0x770
   8129c:	aa0003f3 	mov	x19, x0
   812a0:	a9057fff 	stp	xzr, xzr, [sp, #80]
   812a4:	a90453e8 	stp	x8, x20, [sp, #64]
   812a8:	52800108 	mov	w8, #0x8                   	// #8
   812ac:	f90033e8 	str	x8, [sp, #96]
   812b0:	9100a3e8 	add	x8, sp, #0x28
   812b4:	910103e0 	add	x0, sp, #0x40
   812b8:	9400185c 	bl	87428 <_ZN5alloc3fmt6format17hafdd08834ed4019dE>
   812bc:	a942a3e9 	ldp	x9, x8, [sp, #40]
   812c0:	90000015 	adrp	x21, 81000 <_ZN17ruspiro_singleton18Singleton$LT$T$GT$8take_for17hf1c6e0fe436b4d7eE+0x248>
   812c4:	90000076 	adrp	x22, 8d000 <GCC_except_table3+0xa5c>
   812c8:	911822b5 	add	x21, x21, #0x608
   812cc:	911d42d6 	add	x22, x22, #0x750
   812d0:	f9401fea 	ldr	x10, [sp, #56]
   812d4:	a90123e9 	stp	x9, x8, [sp, #16]
   812d8:	910043e8 	add	x8, sp, #0x10
   812dc:	52800049 	mov	w9, #0x2                   	// #2
   812e0:	a9057fff 	stp	xzr, xzr, [sp, #80]
   812e4:	a90057e8 	stp	x8, x21, [sp]
   812e8:	52800028 	mov	w8, #0x1                   	// #1
   812ec:	a90427f6 	stp	x22, x9, [sp, #64]
   812f0:	910003e9 	mov	x9, sp
   812f4:	f90013ea 	str	x10, [sp, #32]
   812f8:	a90623e9 	stp	x9, x8, [sp, #96]
   812fc:	9100a3e8 	add	x8, sp, #0x28
   81300:	910103e0 	add	x0, sp, #0x40
   81304:	94001849 	bl	87428 <_ZN5alloc3fmt6format17hafdd08834ed4019dE>
   81308:	f9400fe1 	ldr	x1, [sp, #24]
   8130c:	b4000081 	cbz	x1, 8131c <_ZN4core3ops8function6FnOnce40call_once$u7b$$u7b$vtable.shim$u7d$$u7d$17h20902b3a40784a5eE+0x9c>
   81310:	f9400be0 	ldr	x0, [sp, #16]
   81314:	52800022 	mov	w2, #0x1                   	// #1
   81318:	94000298 	bl	81d78 <__rust_dealloc>
   8131c:	a942a3f4 	ldp	x20, x8, [sp, #40]
   81320:	f9401fe1 	ldr	x1, [sp, #56]
   81324:	a90423f4 	stp	x20, x8, [sp, #64]
   81328:	f9002be1 	str	x1, [sp, #80]
   8132c:	aa1403e0 	mov	x0, x20
   81330:	940017d4 	bl	87280 <_ZN15ruspiro_console5print17h057cac26d371b76dE>
   81334:	f94027e1 	ldr	x1, [sp, #72]
   81338:	b4000081 	cbz	x1, 81348 <_ZN4core3ops8function6FnOnce40call_once$u7b$$u7b$vtable.shim$u7d$$u7d$17h20902b3a40784a5eE+0xc8>
   8133c:	aa1403e0 	mov	x0, x20
   81340:	52800022 	mov	w2, #0x1                   	// #1
   81344:	9400028d 	bl	81d78 <__rust_dealloc>
   81348:	f9400268 	ldr	x8, [x19]
   8134c:	52800029 	mov	w9, #0x1                   	// #1
   81350:	91004108 	add	x8, x8, #0x10
   81354:	085ffd0a 	ldaxrb	w10, [x8]
   81358:	080bfd09 	stlxrb	w11, w9, [x8]
   8135c:	7100017f 	cmp	w11, #0x0
   81360:	7a400940 	ccmp	w10, #0x0, #0x0, eq  // eq = none
   81364:	54ffff81 	b.ne	81354 <_ZN4core3ops8function6FnOnce40call_once$u7b$$u7b$vtable.shim$u7d$$u7d$17h20902b3a40784a5eE+0xd4>  // b.any
   81368:	b9400509 	ldr	w9, [x8, #4]
   8136c:	11000529 	add	w9, w9, #0x1
   81370:	b9000509 	str	w9, [x8, #4]
   81374:	085ffd1f 	ldaxrb	wzr, [x8]
   81378:	0809fd1f 	stlxrb	w9, wzr, [x8]
   8137c:	35ffffc9 	cbnz	w9, 81374 <_ZN4core3ops8function6FnOnce40call_once$u7b$$u7b$vtable.shim$u7d$$u7d$17h20902b3a40784a5eE+0xf4>
   81380:	91002261 	add	x1, x19, #0x8
   81384:	52800502 	mov	w2, #0x28                  	// #40
   81388:	910103e0 	add	x0, sp, #0x40
   8138c:	940022fe 	bl	89f84 <memcpy>
   81390:	910103e0 	add	x0, sp, #0x40
   81394:	2a1f03f4 	mov	w20, wzr
   81398:	9400066c 	bl	82d48 <_ZN13ruspiro_brain8thoughts5waker5Waker4wake17h808a975f295c8579E>
   8139c:	90000068 	adrp	x8, 8d000 <GCC_except_table3+0xa5c>
   813a0:	52800029 	mov	w9, #0x1                   	// #1
   813a4:	911e0108 	add	x8, x8, #0x780
   813a8:	5280010a 	mov	w10, #0x8                   	// #8
   813ac:	a9057fff 	stp	xzr, xzr, [sp, #80]
   813b0:	a90427e8 	stp	x8, x9, [sp, #64]
   813b4:	a9067fea 	stp	x10, xzr, [sp, #96]
   813b8:	9100a3e8 	add	x8, sp, #0x28
   813bc:	910103e0 	add	x0, sp, #0x40
   813c0:	2a1f03f4 	mov	w20, wzr
   813c4:	94001819 	bl	87428 <_ZN5alloc3fmt6format17hafdd08834ed4019dE>
   813c8:	a942a3e9 	ldp	x9, x8, [sp, #40]
   813cc:	f9401fea 	ldr	x10, [sp, #56]
   813d0:	a9057fff 	stp	xzr, xzr, [sp, #80]
   813d4:	a90123e9 	stp	x9, x8, [sp, #16]
   813d8:	910043e8 	add	x8, sp, #0x10
   813dc:	52800049 	mov	w9, #0x2                   	// #2
   813e0:	f90013ea 	str	x10, [sp, #32]
   813e4:	a90057e8 	stp	x8, x21, [sp]
   813e8:	52800028 	mov	w8, #0x1                   	// #1
   813ec:	a90427f6 	stp	x22, x9, [sp, #64]
   813f0:	910003e9 	mov	x9, sp
   813f4:	a90623e9 	stp	x9, x8, [sp, #96]
   813f8:	9100a3e8 	add	x8, sp, #0x28
   813fc:	910103e0 	add	x0, sp, #0x40
   81400:	9400180a 	bl	87428 <_ZN5alloc3fmt6format17hafdd08834ed4019dE>
   81404:	f9400fe1 	ldr	x1, [sp, #24]
   81408:	b4000081 	cbz	x1, 81418 <_ZN4core3ops8function6FnOnce40call_once$u7b$$u7b$vtable.shim$u7d$$u7d$17h20902b3a40784a5eE+0x198>
   8140c:	f9400be0 	ldr	x0, [sp, #16]
   81410:	52800022 	mov	w2, #0x1                   	// #1
   81414:	94000259 	bl	81d78 <__rust_dealloc>
   81418:	a942a3f4 	ldp	x20, x8, [sp, #40]
   8141c:	f9401fe1 	ldr	x1, [sp, #56]
   81420:	a90423f4 	stp	x20, x8, [sp, #64]
   81424:	f9002be1 	str	x1, [sp, #80]
   81428:	aa1403e0 	mov	x0, x20
   8142c:	94001795 	bl	87280 <_ZN15ruspiro_console5print17h057cac26d371b76dE>
   81430:	f94027e1 	ldr	x1, [sp, #72]
   81434:	b4000081 	cbz	x1, 81444 <_ZN4core3ops8function6FnOnce40call_once$u7b$$u7b$vtable.shim$u7d$$u7d$17h20902b3a40784a5eE+0x1c4>
   81438:	aa1403e0 	mov	x0, x20
   8143c:	52800022 	mov	w2, #0x1                   	// #1
   81440:	9400024e 	bl	81d78 <__rust_dealloc>
   81444:	f9400268 	ldr	x8, [x19]
   81448:	c85f7d09 	ldxr	x9, [x8]
   8144c:	f1000529 	subs	x9, x9, #0x1
   81450:	c80afd09 	stlxr	w10, x9, [x8]
   81454:	35ffffaa 	cbnz	w10, 81448 <_ZN4core3ops8function6FnOnce40call_once$u7b$$u7b$vtable.shim$u7d$$u7d$17h20902b3a40784a5eE+0x1c8>
   81458:	54000081 	b.ne	81468 <_ZN4core3ops8function6FnOnce40call_once$u7b$$u7b$vtable.shim$u7d$$u7d$17h20902b3a40784a5eE+0x1e8>  // b.any
   8145c:	aa1303e0 	mov	x0, x19
   81460:	d50339bf 	dmb	ishld
   81464:	9400006f 	bl	81620 <_ZN5alloc4sync12Arc$LT$T$GT$9drop_slow17h4b104dfef6354cb2E>
   81468:	a9497bf3 	ldp	x19, x30, [sp, #144]
   8146c:	f9403bf6 	ldr	x22, [sp, #112]
   81470:	a94853f5 	ldp	x21, x20, [sp, #128]
   81474:	910283ff 	add	sp, sp, #0xa0
   81478:	d65f03c0 	ret
   8147c:	aa0003f4 	mov	x20, x0
   81480:	910103e0 	add	x0, sp, #0x40
   81484:	14000003 	b	81490 <_ZN4core3ops8function6FnOnce40call_once$u7b$$u7b$vtable.shim$u7d$$u7d$17h20902b3a40784a5eE+0x210>
   81488:	aa0003f4 	mov	x20, x0
   8148c:	910043e0 	add	x0, sp, #0x10
   81490:	94000052 	bl	815d8 <_ZN4core3ptr18real_drop_in_place17hfbd399c3a3a141bdE>
   81494:	aa1303e0 	mov	x0, x19
   81498:	9400002e 	bl	81550 <_ZN4core3ptr18real_drop_in_place17h97bdf1132a997260E>
   8149c:	aa1403e0 	mov	x0, x20
   814a0:	94000a14 	bl	83cf0 <_Unwind_Resume>
   814a4:	d4200020 	brk	#0x1
   814a8:	aa0003f4 	mov	x20, x0
   814ac:	910103e0 	add	x0, sp, #0x40
   814b0:	14000003 	b	814bc <_ZN4core3ops8function6FnOnce40call_once$u7b$$u7b$vtable.shim$u7d$$u7d$17h20902b3a40784a5eE+0x23c>
   814b4:	aa0003f4 	mov	x20, x0
   814b8:	910043e0 	add	x0, sp, #0x10
   814bc:	94000047 	bl	815d8 <_ZN4core3ptr18real_drop_in_place17hfbd399c3a3a141bdE>
   814c0:	aa1303e0 	mov	x0, x19
   814c4:	94000023 	bl	81550 <_ZN4core3ptr18real_drop_in_place17h97bdf1132a997260E>
   814c8:	14000006 	b	814e0 <_ZN4core3ops8function6FnOnce40call_once$u7b$$u7b$vtable.shim$u7d$$u7d$17h20902b3a40784a5eE+0x260>
   814cc:	aa1403f5 	mov	x21, x20
   814d0:	aa0003f4 	mov	x20, x0
   814d4:	aa1303e0 	mov	x0, x19
   814d8:	9400001e 	bl	81550 <_ZN4core3ptr18real_drop_in_place17h97bdf1132a997260E>
   814dc:	36000075 	tbz	w21, #0, 814e8 <_ZN4core3ops8function6FnOnce40call_once$u7b$$u7b$vtable.shim$u7d$$u7d$17h20902b3a40784a5eE+0x268>
   814e0:	91002260 	add	x0, x19, #0x8
   814e4:	9400003b 	bl	815d0 <_ZN4core3ptr18real_drop_in_place17heb1faf21e92f2cd3E>
   814e8:	aa1403e0 	mov	x0, x20
   814ec:	94000a01 	bl	83cf0 <_Unwind_Resume>
   814f0:	d4200020 	brk	#0x1
   814f4:	00000000 	.inst	0x00000000 ; undefined

00000000000814f8 <_ZN4core3ptr18real_drop_in_place17h811c6e2bdfdb79d8E>:
   814f8:	f81e0ff4 	str	x20, [sp, #-32]!
   814fc:	a9017bf3 	stp	x19, x30, [sp, #16]
   81500:	aa0003f3 	mov	x19, x0
   81504:	f8408c08 	ldr	x8, [x0, #8]!
   81508:	c85f7d09 	ldxr	x9, [x8]
   8150c:	f1000529 	subs	x9, x9, #0x1
   81510:	c80afd09 	stlxr	w10, x9, [x8]
   81514:	35ffffaa 	cbnz	w10, 81508 <_ZN4core3ptr18real_drop_in_place17h811c6e2bdfdb79d8E+0x10>
   81518:	54000061 	b.ne	81524 <_ZN4core3ptr18real_drop_in_place17h811c6e2bdfdb79d8E+0x2c>  // b.any
   8151c:	d50339bf 	dmb	ishld
   81520:	94000040 	bl	81620 <_ZN5alloc4sync12Arc$LT$T$GT$9drop_slow17h4b104dfef6354cb2E>
   81524:	91004260 	add	x0, x19, #0x10
   81528:	a9417bf3 	ldp	x19, x30, [sp, #16]
   8152c:	f84207f4 	ldr	x20, [sp], #32
   81530:	14000618 	b	82d90 <_ZN79_$LT$ruspiro_brain..thoughts..waker..Waker$u20$as$u20$core..ops..drop..Drop$GT$4drop17h7df6c25be8e2a326E>
   81534:	aa0003f4 	mov	x20, x0
   81538:	91004260 	add	x0, x19, #0x10
   8153c:	94000025 	bl	815d0 <_ZN4core3ptr18real_drop_in_place17heb1faf21e92f2cd3E>
   81540:	aa1403e0 	mov	x0, x20
   81544:	940009eb 	bl	83cf0 <_Unwind_Resume>
   81548:	d4200020 	brk	#0x1
   8154c:	00000000 	.inst	0x00000000 ; undefined

0000000000081550 <_ZN4core3ptr18real_drop_in_place17h97bdf1132a997260E>:
   81550:	f9400008 	ldr	x8, [x0]
   81554:	c85f7d09 	ldxr	x9, [x8]
   81558:	f1000529 	subs	x9, x9, #0x1
   8155c:	c80afd09 	stlxr	w10, x9, [x8]
   81560:	35ffffaa 	cbnz	w10, 81554 <_ZN4core3ptr18real_drop_in_place17h97bdf1132a997260E+0x4>
   81564:	54000061 	b.ne	81570 <_ZN4core3ptr18real_drop_in_place17h97bdf1132a997260E+0x20>  // b.any
   81568:	d50339bf 	dmb	ishld
   8156c:	1400002d 	b	81620 <_ZN5alloc4sync12Arc$LT$T$GT$9drop_slow17h4b104dfef6354cb2E>
   81570:	d65f03c0 	ret
   81574:	00000000 	.inst	0x00000000 ; undefined

0000000000081578 <_ZN4core3ptr18real_drop_in_place17hb42a928b7cfb09ffE>:
   81578:	f81e0ff4 	str	x20, [sp, #-32]!
   8157c:	a9017bf3 	stp	x19, x30, [sp, #16]
   81580:	f9400008 	ldr	x8, [x0]
   81584:	aa0003f3 	mov	x19, x0
   81588:	c85f7d09 	ldxr	x9, [x8]
   8158c:	f1000529 	subs	x9, x9, #0x1
   81590:	c80afd09 	stlxr	w10, x9, [x8]
   81594:	35ffffaa 	cbnz	w10, 81588 <_ZN4core3ptr18real_drop_in_place17hb42a928b7cfb09ffE+0x10>
   81598:	54000081 	b.ne	815a8 <_ZN4core3ptr18real_drop_in_place17hb42a928b7cfb09ffE+0x30>  // b.any
   8159c:	d50339bf 	dmb	ishld
   815a0:	aa1303e0 	mov	x0, x19
   815a4:	9400001f 	bl	81620 <_ZN5alloc4sync12Arc$LT$T$GT$9drop_slow17h4b104dfef6354cb2E>
   815a8:	91002260 	add	x0, x19, #0x8
   815ac:	a9417bf3 	ldp	x19, x30, [sp, #16]
   815b0:	f84207f4 	ldr	x20, [sp], #32
   815b4:	140005f7 	b	82d90 <_ZN79_$LT$ruspiro_brain..thoughts..waker..Waker$u20$as$u20$core..ops..drop..Drop$GT$4drop17h7df6c25be8e2a326E>
   815b8:	aa0003f4 	mov	x20, x0
   815bc:	91002260 	add	x0, x19, #0x8
   815c0:	94000004 	bl	815d0 <_ZN4core3ptr18real_drop_in_place17heb1faf21e92f2cd3E>
   815c4:	aa1403e0 	mov	x0, x20
   815c8:	940009ca 	bl	83cf0 <_Unwind_Resume>
   815cc:	d4200020 	brk	#0x1

00000000000815d0 <_ZN4core3ptr18real_drop_in_place17heb1faf21e92f2cd3E>:
   815d0:	140005f0 	b	82d90 <_ZN79_$LT$ruspiro_brain..thoughts..waker..Waker$u20$as$u20$core..ops..drop..Drop$GT$4drop17h7df6c25be8e2a326E>
   815d4:	00000000 	.inst	0x00000000 ; undefined

00000000000815d8 <_ZN4core3ptr18real_drop_in_place17hfbd399c3a3a141bdE>:
   815d8:	f9400401 	ldr	x1, [x0, #8]
   815dc:	b4000081 	cbz	x1, 815ec <_ZN4core3ptr18real_drop_in_place17hfbd399c3a3a141bdE+0x14>
   815e0:	f9400000 	ldr	x0, [x0]
   815e4:	52800022 	mov	w2, #0x1                   	// #1
   815e8:	140001e4 	b	81d78 <__rust_dealloc>
   815ec:	d65f03c0 	ret

00000000000815f0 <_ZN5alloc5alloc8box_free17h3eaf163627febce4E>:
   815f0:	aa0103e8 	mov	x8, x1
   815f4:	f9400421 	ldr	x1, [x1, #8]
   815f8:	b4000061 	cbz	x1, 81604 <_ZN5alloc5alloc8box_free17h3eaf163627febce4E+0x14>
   815fc:	f9400902 	ldr	x2, [x8, #16]
   81600:	140001de 	b	81d78 <__rust_dealloc>
   81604:	d65f03c0 	ret

0000000000081608 <_ZN60_$LT$alloc..string..String$u20$as$u20$core..fmt..Display$GT$3fmt17he9b65cb3b2e3446eE>:
   81608:	f9400008 	ldr	x8, [x0]
   8160c:	aa0103e2 	mov	x2, x1
   81610:	f9400809 	ldr	x9, [x0, #16]
   81614:	aa0803e0 	mov	x0, x8
   81618:	aa0903e1 	mov	x1, x9
   8161c:	1400210d 	b	89a50 <_ZN42_$LT$str$u20$as$u20$core..fmt..Display$GT$3fmt17h5a9de3cd403484d2E>

0000000000081620 <_ZN5alloc4sync12Arc$LT$T$GT$9drop_slow17h4b104dfef6354cb2E>:
   81620:	f9400008 	ldr	x8, [x0]
   81624:	91002108 	add	x8, x8, #0x8
   81628:	c85f7d09 	ldxr	x9, [x8]
   8162c:	f1000529 	subs	x9, x9, #0x1
   81630:	c80afd09 	stlxr	w10, x9, [x8]
   81634:	35ffffaa 	cbnz	w10, 81628 <_ZN5alloc4sync12Arc$LT$T$GT$9drop_slow17h4b104dfef6354cb2E+0x8>
   81638:	540000c1 	b.ne	81650 <_ZN5alloc4sync12Arc$LT$T$GT$9drop_slow17h4b104dfef6354cb2E+0x30>  // b.any
   8163c:	d50339bf 	dmb	ishld
   81640:	52800401 	mov	w1, #0x20                  	// #32
   81644:	f9400000 	ldr	x0, [x0]
   81648:	52800202 	mov	w2, #0x10                  	// #16
   8164c:	140001cb 	b	81d78 <__rust_dealloc>
   81650:	d65f03c0 	ret
   81654:	00000000 	.inst	0x00000000 ; undefined

0000000000081658 <_ZN44_$LT$$RF$T$u20$as$u20$core..fmt..Display$GT$3fmt17he73225b2a7526953E>:
   81658:	a9402408 	ldp	x8, x9, [x0]
   8165c:	aa0103e2 	mov	x2, x1
   81660:	aa0803e0 	mov	x0, x8
   81664:	aa0903e1 	mov	x1, x9
   81668:	140020fa 	b	89a50 <_ZN42_$LT$str$u20$as$u20$core..fmt..Display$GT$3fmt17h5a9de3cd403484d2E>
   8166c:	00000000 	.inst	0x00000000 ; undefined

0000000000081670 <_ZN4core3ptr18real_drop_in_place17hfbd399c3a3a141bdE>:
   81670:	f9400401 	ldr	x1, [x0, #8]
   81674:	b4000081 	cbz	x1, 81684 <_ZN4core3ptr18real_drop_in_place17hfbd399c3a3a141bdE+0x14>
   81678:	f9400000 	ldr	x0, [x0]
   8167c:	52800022 	mov	w2, #0x1                   	// #1
   81680:	140001be 	b	81d78 <__rust_dealloc>
   81684:	d65f03c0 	ret

0000000000081688 <_ZN60_$LT$alloc..string..String$u20$as$u20$core..fmt..Display$GT$3fmt17he9b65cb3b2e3446eE>:
   81688:	f9400008 	ldr	x8, [x0]
   8168c:	aa0103e2 	mov	x2, x1
   81690:	f9400809 	ldr	x9, [x0, #16]
   81694:	aa0803e0 	mov	x0, x8
   81698:	aa0903e1 	mov	x1, x9
   8169c:	140020ed 	b	89a50 <_ZN42_$LT$str$u20$as$u20$core..fmt..Display$GT$3fmt17h5a9de3cd403484d2E>

00000000000816a0 <_ZN89_$LT$kernel.._brain_awake..AwakeThought$u20$as$u20$ruspiro_brain..thoughts..Thinkable$GT$5think17hc381061bd3f52af9E>:
   816a0:	d10243ff 	sub	sp, sp, #0x90
   816a4:	a906d3ff 	stp	xzr, x20, [sp, #104]
   816a8:	a9087bf3 	stp	x19, x30, [sp, #128]
   816ac:	90000068 	adrp	x8, 8d000 <GCC_except_table3+0xa5c>
   816b0:	52800033 	mov	w19, #0x1                   	// #1
   816b4:	911ec108 	add	x8, x8, #0x7b0
   816b8:	52800109 	mov	w9, #0x8                   	// #8
   816bc:	910103e0 	add	x0, sp, #0x40
   816c0:	a9057fff 	stp	xzr, xzr, [sp, #80]
   816c4:	9100a3f4 	add	x20, sp, #0x28
   816c8:	a9044fe8 	stp	x8, x19, [sp, #64]
   816cc:	9100a3e8 	add	x8, sp, #0x28
   816d0:	f90033e9 	str	x9, [sp, #96]
   816d4:	94001755 	bl	87428 <_ZN5alloc3fmt6format17hafdd08834ed4019dE>
   816d8:	90000008 	adrp	x8, 81000 <_ZN17ruspiro_singleton18Singleton$LT$T$GT$8take_for17hf1c6e0fe436b4d7eE+0x248>
   816dc:	52800049 	mov	w9, #0x2                   	// #2
   816e0:	911a2108 	add	x8, x8, #0x688
   816e4:	a9057fff 	stp	xzr, xzr, [sp, #80]
   816e8:	a901a3f4 	stp	x20, x8, [sp, #24]
   816ec:	90000068 	adrp	x8, 8d000 <GCC_except_table3+0xa5c>
   816f0:	911e4108 	add	x8, x8, #0x790
   816f4:	a90427e8 	stp	x8, x9, [sp, #64]
   816f8:	910063e8 	add	x8, sp, #0x18
   816fc:	a9064fe8 	stp	x8, x19, [sp, #96]
   81700:	910003e8 	mov	x8, sp
   81704:	910103e0 	add	x0, sp, #0x40
   81708:	94001748 	bl	87428 <_ZN5alloc3fmt6format17hafdd08834ed4019dE>
   8170c:	f9401be1 	ldr	x1, [sp, #48]
   81710:	b4000081 	cbz	x1, 81720 <_ZN89_$LT$kernel.._brain_awake..AwakeThought$u20$as$u20$ruspiro_brain..thoughts..Thinkable$GT$5think17hc381061bd3f52af9E+0x80>
   81714:	f94017e0 	ldr	x0, [sp, #40]
   81718:	52800022 	mov	w2, #0x1                   	// #1
   8171c:	94000197 	bl	81d78 <__rust_dealloc>
   81720:	a94023f3 	ldp	x19, x8, [sp]
   81724:	f9400be1 	ldr	x1, [sp, #16]
   81728:	a90423f3 	stp	x19, x8, [sp, #64]
   8172c:	f9002be1 	str	x1, [sp, #80]
   81730:	aa1303e0 	mov	x0, x19
   81734:	940016d3 	bl	87280 <_ZN15ruspiro_console5print17h057cac26d371b76dE>
   81738:	f94027e1 	ldr	x1, [sp, #72]
   8173c:	b4000081 	cbz	x1, 8174c <_ZN89_$LT$kernel.._brain_awake..AwakeThought$u20$as$u20$ruspiro_brain..thoughts..Thinkable$GT$5think17hc381061bd3f52af9E+0xac>
   81740:	aa1303e0 	mov	x0, x19
   81744:	52800022 	mov	w2, #0x1                   	// #1
   81748:	9400018c 	bl	81d78 <__rust_dealloc>
   8174c:	52800400 	mov	w0, #0x20                  	// #32
   81750:	52800201 	mov	w1, #0x10                  	// #16
   81754:	94000185 	bl	81d68 <__rust_alloc>
   81758:	b40002e0 	cbz	x0, 817b4 <_ZN89_$LT$kernel.._brain_awake..AwakeThought$u20$as$u20$ruspiro_brain..thoughts..Thinkable$GT$5think17hc381061bd3f52af9E+0x114>
   8175c:	52800028 	mov	w8, #0x1                   	// #1
   81760:	394103e9 	ldrb	w9, [sp, #64]
   81764:	394107ea 	ldrb	w10, [sp, #65]
   81768:	aa0003e1 	mov	x1, x0
   8176c:	3900401f 	strb	wzr, [x0, #16]
   81770:	52800142 	mov	w2, #0xa                   	// #10
   81774:	4e080d00 	dup	v0.2d, x8
   81778:	39410be8 	ldrb	w8, [sp, #66]
   8177c:	39004409 	strb	w9, [x0, #17]
   81780:	3900480a 	strb	w10, [x0, #18]
   81784:	b900141f 	str	wzr, [x0, #20]
   81788:	39004c08 	strb	w8, [x0, #19]
   8178c:	b0000068 	adrp	x8, 8e000 <_ZN4core3fmt3num14DEC_DIGITS_LUT17h46bba502bada2534E+0x1c0>
   81790:	3d800000 	str	q0, [x0]
   81794:	f9445108 	ldr	x8, [x8, #2208]
   81798:	91004100 	add	x0, x8, #0x10
   8179c:	94000023 	bl	81828 <_ZN75_$LT$ruspiro_brain..brain..Brain$u20$as$u20$ruspiro_brain..brain..Spawn$GT$5spawn17h810253d5586284caE>
   817a0:	a9487bf3 	ldp	x19, x30, [sp, #128]
   817a4:	52800020 	mov	w0, #0x1                   	// #1
   817a8:	f9403bf4 	ldr	x20, [sp, #112]
   817ac:	910243ff 	add	sp, sp, #0x90
   817b0:	d65f03c0 	ret
   817b4:	52800400 	mov	w0, #0x20                  	// #32
   817b8:	52800201 	mov	w1, #0x10                  	// #16
   817bc:	94001711 	bl	87400 <_ZN5alloc5alloc18handle_alloc_error17h11286e57f71cf9c1E>
   817c0:	d4200020 	brk	#0x1
   817c4:	aa0003f3 	mov	x19, x0
   817c8:	910103e0 	add	x0, sp, #0x40
   817cc:	97ffffa9 	bl	81670 <_ZN4core3ptr18real_drop_in_place17hfbd399c3a3a141bdE>
   817d0:	aa1303e0 	mov	x0, x19
   817d4:	94000947 	bl	83cf0 <_Unwind_Resume>
   817d8:	d4200020 	brk	#0x1
   817dc:	aa0003f3 	mov	x19, x0
   817e0:	9100a3e0 	add	x0, sp, #0x28
   817e4:	97ffffa3 	bl	81670 <_ZN4core3ptr18real_drop_in_place17hfbd399c3a3a141bdE>
   817e8:	aa1303e0 	mov	x0, x19
   817ec:	94000941 	bl	83cf0 <_Unwind_Resume>
   817f0:	d4200020 	brk	#0x1
   817f4:	00000000 	.inst	0x00000000 ; undefined

00000000000817f8 <_ZN4core3ptr18real_drop_in_place17h55595b44f6fa430bE>:
   817f8:	d65f03c0 	ret
   817fc:	00000000 	.inst	0x00000000 ; undefined

0000000000081800 <_ZN4core3ptr18real_drop_in_place17h938e1828e30449a3E>:
   81800:	f9400008 	ldr	x8, [x0]
   81804:	c85f7d09 	ldxr	x9, [x8]
   81808:	f1000529 	subs	x9, x9, #0x1
   8180c:	c80afd09 	stlxr	w10, x9, [x8]
   81810:	35ffffaa 	cbnz	w10, 81804 <_ZN4core3ptr18real_drop_in_place17h938e1828e30449a3E+0x4>
   81814:	54000061 	b.ne	81820 <_ZN4core3ptr18real_drop_in_place17h938e1828e30449a3E+0x20>  // b.any
   81818:	d50339bf 	dmb	ishld
   8181c:	17ffff81 	b	81620 <_ZN5alloc4sync12Arc$LT$T$GT$9drop_slow17h4b104dfef6354cb2E>
   81820:	d65f03c0 	ret
   81824:	00000000 	.inst	0x00000000 ; undefined

0000000000081828 <_ZN75_$LT$ruspiro_brain..brain..Brain$u20$as$u20$ruspiro_brain..brain..Spawn$GT$5spawn17h810253d5586284caE>:
   81828:	d101c3ff 	sub	sp, sp, #0x70
   8182c:	a90553f5 	stp	x21, x20, [sp, #80]
   81830:	a9067bf3 	stp	x19, x30, [sp, #96]
   81834:	f9400015 	ldr	x21, [x0]
   81838:	aa0103f3 	mov	x19, x1
   8183c:	f90003e1 	str	x1, [sp]
   81840:	b9000be2 	str	w2, [sp, #8]
   81844:	b4000595 	cbz	x21, 818f4 <_ZN75_$LT$ruspiro_brain..brain..Brain$u20$as$u20$ruspiro_brain..brain..Spawn$GT$5spawn17h810253d5586284caE+0xcc>
   81848:	52800200 	mov	w0, #0x10                  	// #16
   8184c:	52800101 	mov	w1, #0x8                   	// #8
   81850:	2a0203f4 	mov	w20, w2
   81854:	94000145 	bl	81d68 <__rust_alloc>
   81858:	b4000660 	cbz	x0, 81924 <_ZN75_$LT$ruspiro_brain..brain..Brain$u20$as$u20$ruspiro_brain..brain..Spawn$GT$5spawn17h810253d5586284caE+0xfc>
   8185c:	90000068 	adrp	x8, 8d000 <GCC_except_table3+0xa5c>
   81860:	f9000013 	str	x19, [x0]
   81864:	911f0108 	add	x8, x8, #0x7c0
   81868:	b9000814 	str	w20, [x0, #8]
   8186c:	3900c3ff 	strb	wzr, [sp, #48]
   81870:	a903a3e0 	stp	x0, x8, [sp, #56]
   81874:	c85f7ea8 	ldxr	x8, [x21]
   81878:	91000509 	add	x9, x8, #0x1
   8187c:	c80a7ea9 	stxr	w10, x9, [x21]
   81880:	35ffffaa 	cbnz	w10, 81874 <_ZN75_$LT$ruspiro_brain..brain..Brain$u20$as$u20$ruspiro_brain..brain..Spawn$GT$5spawn17h810253d5586284caE+0x4c>
   81884:	b7f80588 	tbnz	x8, #63, 81934 <_ZN75_$LT$ruspiro_brain..brain..Brain$u20$as$u20$ruspiro_brain..brain..Spawn$GT$5spawn17h810253d5586284caE+0x10c>
   81888:	ad4187e0 	ldp	q0, q1, [sp, #48]
   8188c:	52800800 	mov	w0, #0x40                  	// #64
   81890:	52800201 	mov	w1, #0x10                  	// #16
   81894:	ad0087e0 	stp	q0, q1, [sp, #16]
   81898:	94000134 	bl	81d68 <__rust_alloc>
   8189c:	b4000500 	cbz	x0, 8193c <_ZN75_$LT$ruspiro_brain..brain..Brain$u20$as$u20$ruspiro_brain..brain..Spawn$GT$5spawn17h810253d5586284caE+0x114>
   818a0:	52800028 	mov	w8, #0x1                   	// #1
   818a4:	aa0003f3 	mov	x19, x0
   818a8:	ad4087e2 	ldp	q2, q1, [sp, #16]
   818ac:	f9001815 	str	x21, [x0, #48]
   818b0:	4e080d00 	dup	v0.2d, x8
   818b4:	52800201 	mov	w1, #0x10                  	// #16
   818b8:	ad008402 	stp	q2, q1, [x0, #16]
   818bc:	3d800000 	str	q0, [x0]
   818c0:	52800200 	mov	w0, #0x10                  	// #16
   818c4:	94000129 	bl	81d68 <__rust_alloc>
   818c8:	b4000420 	cbz	x0, 8194c <_ZN75_$LT$ruspiro_brain..brain..Brain$u20$as$u20$ruspiro_brain..brain..Spawn$GT$5spawn17h810253d5586284caE+0x124>
   818cc:	9100a2a8 	add	x8, x21, #0x28
   818d0:	a9004c1f 	stp	xzr, x19, [x0]
   818d4:	c85ffd09 	ldaxr	x9, [x8]
   818d8:	c80afd00 	stlxr	w10, x0, [x8]
   818dc:	35ffffca 	cbnz	w10, 818d4 <_ZN75_$LT$ruspiro_brain..brain..Brain$u20$as$u20$ruspiro_brain..brain..Spawn$GT$5spawn17h810253d5586284caE+0xac>
   818e0:	f9000120 	str	x0, [x9]
   818e4:	a9467bf3 	ldp	x19, x30, [sp, #96]
   818e8:	a94553f5 	ldp	x21, x20, [sp, #80]
   818ec:	9101c3ff 	add	sp, sp, #0x70
   818f0:	d65f03c0 	ret
   818f4:	c85f7e68 	ldxr	x8, [x19]
   818f8:	f1000508 	subs	x8, x8, #0x1
   818fc:	c809fe68 	stlxr	w9, x8, [x19]
   81900:	35ffffa9 	cbnz	w9, 818f4 <_ZN75_$LT$ruspiro_brain..brain..Brain$u20$as$u20$ruspiro_brain..brain..Spawn$GT$5spawn17h810253d5586284caE+0xcc>
   81904:	54000081 	b.ne	81914 <_ZN75_$LT$ruspiro_brain..brain..Brain$u20$as$u20$ruspiro_brain..brain..Spawn$GT$5spawn17h810253d5586284caE+0xec>  // b.any
   81908:	910003e0 	mov	x0, sp
   8190c:	d50339bf 	dmb	ishld
   81910:	97ffff44 	bl	81620 <_ZN5alloc4sync12Arc$LT$T$GT$9drop_slow17h4b104dfef6354cb2E>
   81914:	a9467bf3 	ldp	x19, x30, [sp, #96]
   81918:	a94553f5 	ldp	x21, x20, [sp, #80]
   8191c:	9101c3ff 	add	sp, sp, #0x70
   81920:	d65f03c0 	ret
   81924:	52800200 	mov	w0, #0x10                  	// #16
   81928:	52800101 	mov	w1, #0x8                   	// #8
   8192c:	940016b5 	bl	87400 <_ZN5alloc5alloc18handle_alloc_error17h11286e57f71cf9c1E>
   81930:	d4200020 	brk	#0x1
   81934:	d4200020 	brk	#0x1
   81938:	d4200020 	brk	#0x1
   8193c:	52800800 	mov	w0, #0x40                  	// #64
   81940:	52800201 	mov	w1, #0x10                  	// #16
   81944:	940016af 	bl	87400 <_ZN5alloc5alloc18handle_alloc_error17h11286e57f71cf9c1E>
   81948:	d4200020 	brk	#0x1
   8194c:	52800200 	mov	w0, #0x10                  	// #16
   81950:	52800201 	mov	w1, #0x10                  	// #16
   81954:	940016ab 	bl	87400 <_ZN5alloc5alloc18handle_alloc_error17h11286e57f71cf9c1E>
   81958:	d4200020 	brk	#0x1
   8195c:	00000000 	.inst	0x00000000 ; undefined

0000000000081960 <_ZN4core3ptr18real_drop_in_place17hc7ade7f3276eaf51E>:
   81960:	f9400008 	ldr	x8, [x0]
   81964:	085ffd1f 	ldaxrb	wzr, [x8]
   81968:	0809fd1f 	stlxrb	w9, wzr, [x8]
   8196c:	35ffffc9 	cbnz	w9, 81964 <_ZN4core3ptr18real_drop_in_place17hc7ade7f3276eaf51E+0x4>
   81970:	d65f03c0 	ret
   81974:	00000000 	.inst	0x00000000 ; undefined

0000000000081978 <_ZN4core3ptr18real_drop_in_place17hfbd399c3a3a141bdE>:
   81978:	f9400401 	ldr	x1, [x0, #8]
   8197c:	b4000081 	cbz	x1, 8198c <_ZN4core3ptr18real_drop_in_place17hfbd399c3a3a141bdE+0x14>
   81980:	f9400000 	ldr	x0, [x0]
   81984:	52800022 	mov	w2, #0x1                   	// #1
   81988:	140000fc 	b	81d78 <__rust_dealloc>
   8198c:	d65f03c0 	ret

0000000000081990 <_ZN60_$LT$alloc..string..String$u20$as$u20$core..fmt..Display$GT$3fmt17he9b65cb3b2e3446eE>:
   81990:	f9400008 	ldr	x8, [x0]
   81994:	aa0103e2 	mov	x2, x1
   81998:	f9400809 	ldr	x9, [x0, #16]
   8199c:	aa0803e0 	mov	x0, x8
   819a0:	aa0903e1 	mov	x1, x9
   819a4:	1400202b 	b	89a50 <_ZN42_$LT$str$u20$as$u20$core..fmt..Display$GT$3fmt17h5a9de3cd403484d2E>

00000000000819a8 <_ZN82_$LT$kernel..TimedCounterThought$u20$as$u20$ruspiro_brain..thoughts..Thinkable$GT$5think17hc93030918c531a0dE>:
   819a8:	d10383ff 	sub	sp, sp, #0xe0
   819ac:	a90b5bf7 	stp	x23, x22, [sp, #176]
   819b0:	a90c53f5 	stp	x21, x20, [sp, #192]
   819b4:	a90d7bf3 	stp	x19, x30, [sp, #208]
   819b8:	90000068 	adrp	x8, 8d000 <GCC_except_table3+0xa5c>
   819bc:	52800035 	mov	w21, #0x1                   	// #1
   819c0:	91214108 	add	x8, x8, #0x850
   819c4:	aa0003f3 	mov	x19, x0
   819c8:	9101e3e0 	add	x0, sp, #0x78
   819cc:	aa0103f4 	mov	x20, x1
   819d0:	a908ffff 	stp	xzr, xzr, [sp, #136]
   819d4:	9100e3f7 	add	x23, sp, #0x38
   819d8:	a907d7e8 	stp	x8, x21, [sp, #120]
   819dc:	52800108 	mov	w8, #0x8                   	// #8
   819e0:	a909ffe8 	stp	x8, xzr, [sp, #152]
   819e4:	9100e3e8 	add	x8, sp, #0x38
   819e8:	94001690 	bl	87428 <_ZN5alloc3fmt6format17hafdd08834ed4019dE>
   819ec:	90000016 	adrp	x22, 81000 <_ZN17ruspiro_singleton18Singleton$LT$T$GT$8take_for17hf1c6e0fe436b4d7eE+0x248>
   819f0:	52800048 	mov	w8, #0x2                   	// #2
   819f4:	912642d6 	add	x22, x22, #0x990
   819f8:	a908ffff 	stp	xzr, xzr, [sp, #136]
   819fc:	a906dbf7 	stp	x23, x22, [sp, #104]
   81a00:	90000077 	adrp	x23, 8d000 <GCC_except_table3+0xa5c>
   81a04:	9120c2f7 	add	x23, x23, #0x830
   81a08:	a907a3f7 	stp	x23, x8, [sp, #120]
   81a0c:	9101a3e8 	add	x8, sp, #0x68
   81a10:	a909d7e8 	stp	x8, x21, [sp, #152]
   81a14:	910043e8 	add	x8, sp, #0x10
   81a18:	9101e3e0 	add	x0, sp, #0x78
   81a1c:	94001683 	bl	87428 <_ZN5alloc3fmt6format17hafdd08834ed4019dE>
   81a20:	f94023e1 	ldr	x1, [sp, #64]
   81a24:	b4000081 	cbz	x1, 81a34 <_ZN82_$LT$kernel..TimedCounterThought$u20$as$u20$ruspiro_brain..thoughts..Thinkable$GT$5think17hc93030918c531a0dE+0x8c>
   81a28:	f9401fe0 	ldr	x0, [sp, #56]
   81a2c:	52800022 	mov	w2, #0x1                   	// #1
   81a30:	940000d2 	bl	81d78 <__rust_dealloc>
   81a34:	a94123f5 	ldp	x21, x8, [sp, #16]
   81a38:	f94013e1 	ldr	x1, [sp, #32]
   81a3c:	a907a3f5 	stp	x21, x8, [sp, #120]
   81a40:	f90047e1 	str	x1, [sp, #136]
   81a44:	aa1503e0 	mov	x0, x21
   81a48:	9400160e 	bl	87280 <_ZN15ruspiro_console5print17h057cac26d371b76dE>
   81a4c:	f94043e1 	ldr	x1, [sp, #128]
   81a50:	b4000081 	cbz	x1, 81a60 <_ZN82_$LT$kernel..TimedCounterThought$u20$as$u20$ruspiro_brain..thoughts..Thinkable$GT$5think17hc93030918c531a0dE+0xb8>
   81a54:	aa1503e0 	mov	x0, x21
   81a58:	52800022 	mov	w2, #0x1                   	// #1
   81a5c:	940000c7 	bl	81d78 <__rust_dealloc>
   81a60:	f9400268 	ldr	x8, [x19]
   81a64:	91004115 	add	x21, x8, #0x10
   81a68:	52800028 	mov	w8, #0x1                   	// #1
   81a6c:	085ffea9 	ldaxrb	w9, [x21]
   81a70:	080afea8 	stlxrb	w10, w8, [x21]
   81a74:	7100015f 	cmp	w10, #0x0
   81a78:	7a400920 	ccmp	w9, #0x0, #0x0, eq  // eq = none
   81a7c:	54ffff81 	b.ne	81a6c <_ZN82_$LT$kernel..TimedCounterThought$u20$as$u20$ruspiro_brain..thoughts..Thinkable$GT$5think17hc93030918c531a0dE+0xc4>  // b.any
   81a80:	b94006a8 	ldr	w8, [x21, #4]
   81a84:	b9400a69 	ldr	w9, [x19, #8]
   81a88:	f90007f5 	str	x21, [sp, #8]
   81a8c:	6b09011f 	cmp	w8, w9
   81a90:	54000442 	b.cs	81b18 <_ZN82_$LT$kernel..TimedCounterThought$u20$as$u20$ruspiro_brain..thoughts..Thinkable$GT$5think17hc93030918c531a0dE+0x170>  // b.hs, b.nlast
   81a94:	f9400280 	ldr	x0, [x20]
   81a98:	910043e8 	add	x8, sp, #0x10
   81a9c:	940004af 	bl	82d58 <_ZN76_$LT$ruspiro_brain..thoughts..waker..Waker$u20$as$u20$core..clone..Clone$GT$5clone17h606f4dbd22395a91E>
   81aa0:	f9400268 	ldr	x8, [x19]
   81aa4:	c85f7d09 	ldxr	x9, [x8]
   81aa8:	9100052a 	add	x10, x9, #0x1
   81aac:	c80b7d0a 	stxr	w11, x10, [x8]
   81ab0:	35ffffab 	cbnz	w11, 81aa4 <_ZN82_$LT$kernel..TimedCounterThought$u20$as$u20$ruspiro_brain..thoughts..Thinkable$GT$5think17hc93030918c531a0dE+0xfc>
   81ab4:	b7f80969 	tbnz	x9, #63, 81be0 <_ZN82_$LT$kernel..TimedCounterThought$u20$as$u20$ruspiro_brain..thoughts..Thinkable$GT$5think17hc93030918c531a0dE+0x238>
   81ab8:	9100e3e9 	add	x9, sp, #0x38
   81abc:	52800502 	mov	w2, #0x28                  	// #40
   81ac0:	91002120 	add	x0, x9, #0x8
   81ac4:	910043e1 	add	x1, sp, #0x10
   81ac8:	f9001fe8 	str	x8, [sp, #56]
   81acc:	9400212e 	bl	89f84 <memcpy>
   81ad0:	94001098 	bl	85d30 <_ZN13ruspiro_timer3now17h886221fe36e27c96E>
   81ad4:	52884808 	mov	w8, #0x4240                	// #16960
   81ad8:	9101e3ea 	add	x10, sp, #0x78
   81adc:	72a001e8 	movk	w8, #0xf, lsl #16
   81ae0:	9101a3e9 	add	x9, sp, #0x68
   81ae4:	8b080008 	add	x8, x0, x8
   81ae8:	91002140 	add	x0, x10, #0x8
   81aec:	9100e3e1 	add	x1, sp, #0x38
   81af0:	52800602 	mov	w2, #0x30                  	// #48
   81af4:	f9003fe9 	str	x9, [sp, #120]
   81af8:	f90037e8 	str	x8, [sp, #104]
   81afc:	94002122 	bl	89f84 <memcpy>
   81b00:	b0000060 	adrp	x0, 8e000 <_ZN4core3fmt3num14DEC_DIGITS_LUT17h46bba502bada2534E+0x1c0>
   81b04:	9101e3e1 	add	x1, sp, #0x78
   81b08:	f9443c00 	ldr	x0, [x0, #2168]
   81b0c:	97fffcab 	bl	80db8 <_ZN17ruspiro_singleton18Singleton$LT$T$GT$8take_for17hf1c6e0fe436b4d7eE>
   81b10:	2a1f03e0 	mov	w0, wzr
   81b14:	1400002b 	b	81bc0 <_ZN82_$LT$kernel..TimedCounterThought$u20$as$u20$ruspiro_brain..thoughts..Thinkable$GT$5think17hc93030918c531a0dE+0x218>
   81b18:	90000068 	adrp	x8, 8d000 <GCC_except_table3+0xa5c>
   81b1c:	52800029 	mov	w9, #0x1                   	// #1
   81b20:	91218108 	add	x8, x8, #0x860
   81b24:	5280010a 	mov	w10, #0x8                   	// #8
   81b28:	a908ffff 	stp	xzr, xzr, [sp, #136]
   81b2c:	a907a7e8 	stp	x8, x9, [sp, #120]
   81b30:	a909ffea 	stp	x10, xzr, [sp, #152]
   81b34:	9100e3e8 	add	x8, sp, #0x38
   81b38:	9101e3e0 	add	x0, sp, #0x78
   81b3c:	9400163b 	bl	87428 <_ZN5alloc3fmt6format17hafdd08834ed4019dE>
   81b40:	a943a3e9 	ldp	x9, x8, [sp, #56]
   81b44:	f94027ea 	ldr	x10, [sp, #72]
   81b48:	a908ffff 	stp	xzr, xzr, [sp, #136]
   81b4c:	a90123e9 	stp	x9, x8, [sp, #16]
   81b50:	910043e8 	add	x8, sp, #0x10
   81b54:	52800049 	mov	w9, #0x2                   	// #2
   81b58:	f90013ea 	str	x10, [sp, #32]
   81b5c:	a906dbe8 	stp	x8, x22, [sp, #104]
   81b60:	52800028 	mov	w8, #0x1                   	// #1
   81b64:	a907a7f7 	stp	x23, x9, [sp, #120]
   81b68:	9101a3e9 	add	x9, sp, #0x68
   81b6c:	a909a3e9 	stp	x9, x8, [sp, #152]
   81b70:	9100e3e8 	add	x8, sp, #0x38
   81b74:	9101e3e0 	add	x0, sp, #0x78
   81b78:	9400162c 	bl	87428 <_ZN5alloc3fmt6format17hafdd08834ed4019dE>
   81b7c:	f9400fe1 	ldr	x1, [sp, #24]
   81b80:	b4000081 	cbz	x1, 81b90 <_ZN82_$LT$kernel..TimedCounterThought$u20$as$u20$ruspiro_brain..thoughts..Thinkable$GT$5think17hc93030918c531a0dE+0x1e8>
   81b84:	f9400be0 	ldr	x0, [sp, #16]
   81b88:	52800022 	mov	w2, #0x1                   	// #1
   81b8c:	9400007b 	bl	81d78 <__rust_dealloc>
   81b90:	a943a3f3 	ldp	x19, x8, [sp, #56]
   81b94:	f94027e1 	ldr	x1, [sp, #72]
   81b98:	a907a3f3 	stp	x19, x8, [sp, #120]
   81b9c:	f90047e1 	str	x1, [sp, #136]
   81ba0:	aa1303e0 	mov	x0, x19
   81ba4:	940015b7 	bl	87280 <_ZN15ruspiro_console5print17h057cac26d371b76dE>
   81ba8:	f94043e1 	ldr	x1, [sp, #128]
   81bac:	b4000081 	cbz	x1, 81bbc <_ZN82_$LT$kernel..TimedCounterThought$u20$as$u20$ruspiro_brain..thoughts..Thinkable$GT$5think17hc93030918c531a0dE+0x214>
   81bb0:	aa1303e0 	mov	x0, x19
   81bb4:	52800022 	mov	w2, #0x1                   	// #1
   81bb8:	94000070 	bl	81d78 <__rust_dealloc>
   81bbc:	52800020 	mov	w0, #0x1                   	// #1
   81bc0:	085ffebf 	ldaxrb	wzr, [x21]
   81bc4:	0808febf 	stlxrb	w8, wzr, [x21]
   81bc8:	35ffffc8 	cbnz	w8, 81bc0 <_ZN82_$LT$kernel..TimedCounterThought$u20$as$u20$ruspiro_brain..thoughts..Thinkable$GT$5think17hc93030918c531a0dE+0x218>
   81bcc:	a94d7bf3 	ldp	x19, x30, [sp, #208]
   81bd0:	a94c53f5 	ldp	x21, x20, [sp, #192]
   81bd4:	a94b5bf7 	ldp	x23, x22, [sp, #176]
   81bd8:	910383ff 	add	sp, sp, #0xe0
   81bdc:	d65f03c0 	ret
   81be0:	d4200020 	brk	#0x1
   81be4:	d4200020 	brk	#0x1
   81be8:	aa0003f3 	mov	x19, x0
   81bec:	9101e3e0 	add	x0, sp, #0x78
   81bf0:	14000003 	b	81bfc <_ZN82_$LT$kernel..TimedCounterThought$u20$as$u20$ruspiro_brain..thoughts..Thinkable$GT$5think17hc93030918c531a0dE+0x254>
   81bf4:	aa0003f3 	mov	x19, x0
   81bf8:	910043e0 	add	x0, sp, #0x10
   81bfc:	97ffff5f 	bl	81978 <_ZN4core3ptr18real_drop_in_place17hfbd399c3a3a141bdE>
   81c00:	14000007 	b	81c1c <_ZN82_$LT$kernel..TimedCounterThought$u20$as$u20$ruspiro_brain..thoughts..Thinkable$GT$5think17hc93030918c531a0dE+0x274>
   81c04:	aa0003f3 	mov	x19, x0
   81c08:	9100e3e0 	add	x0, sp, #0x38
   81c0c:	97fff943 	bl	80118 <_ZN4core3ptr18real_drop_in_place17hb42a928b7cfb09ffE.llvm.14843948732551940918>
   81c10:	14000003 	b	81c1c <_ZN82_$LT$kernel..TimedCounterThought$u20$as$u20$ruspiro_brain..thoughts..Thinkable$GT$5think17hc93030918c531a0dE+0x274>
   81c14:	14000001 	b	81c18 <_ZN82_$LT$kernel..TimedCounterThought$u20$as$u20$ruspiro_brain..thoughts..Thinkable$GT$5think17hc93030918c531a0dE+0x270>
   81c18:	aa0003f3 	mov	x19, x0
   81c1c:	910023e0 	add	x0, sp, #0x8
   81c20:	97ffff50 	bl	81960 <_ZN4core3ptr18real_drop_in_place17hc7ade7f3276eaf51E>
   81c24:	aa1303e0 	mov	x0, x19
   81c28:	94000832 	bl	83cf0 <_Unwind_Resume>
   81c2c:	d4200020 	brk	#0x1
   81c30:	aa0003f3 	mov	x19, x0
   81c34:	9101e3e0 	add	x0, sp, #0x78
   81c38:	97ffff50 	bl	81978 <_ZN4core3ptr18real_drop_in_place17hfbd399c3a3a141bdE>
   81c3c:	aa1303e0 	mov	x0, x19
   81c40:	9400082c 	bl	83cf0 <_Unwind_Resume>
   81c44:	d4200020 	brk	#0x1
   81c48:	aa0003f3 	mov	x19, x0
   81c4c:	9100e3e0 	add	x0, sp, #0x38
   81c50:	97ffff4a 	bl	81978 <_ZN4core3ptr18real_drop_in_place17hfbd399c3a3a141bdE>
   81c54:	aa1303e0 	mov	x0, x19
   81c58:	94000826 	bl	83cf0 <_Unwind_Resume>
   81c5c:	d4200020 	brk	#0x1

0000000000081c60 <awake_with>:
   81c60:	d10143ff 	sub	sp, sp, #0x50
   81c64:	f9001bf4 	str	x20, [sp, #48]
   81c68:	a9047bf3 	stp	x19, x30, [sp, #64]
   81c6c:	b0000068 	adrp	x8, 8e000 <_ZN4core3fmt3num14DEC_DIGITS_LUT17h46bba502bada2534E+0x1c0>
   81c70:	f9445108 	ldr	x8, [x8, #2208]
   81c74:	f9400914 	ldr	x20, [x8, #16]
   81c78:	b40005d4 	cbz	x20, 81d30 <awake_with+0xd0>
   81c7c:	c85f7e88 	ldxr	x8, [x20]
   81c80:	91000509 	add	x9, x8, #0x1
   81c84:	c80a7e89 	stxr	w10, x9, [x20]
   81c88:	35ffffaa 	cbnz	w10, 81c7c <awake_with+0x1c>
   81c8c:	b7f805a8 	tbnz	x8, #63, 81d40 <awake_with+0xe0>
   81c90:	b9403be8 	ldr	w8, [sp, #56]
   81c94:	52800800 	mov	w0, #0x40                  	// #64
   81c98:	79407be9 	ldrh	w9, [sp, #60]
   81c9c:	52800201 	mov	w1, #0x10                  	// #16
   81ca0:	3940fbea 	ldrb	w10, [sp, #62]
   81ca4:	b9002be8 	str	w8, [sp, #40]
   81ca8:	79005be9 	strh	w9, [sp, #44]
   81cac:	3900bbea 	strb	w10, [sp, #46]
   81cb0:	9400002e 	bl	81d68 <__rust_alloc>
   81cb4:	b40004a0 	cbz	x0, 81d48 <awake_with+0xe8>
   81cb8:	52800028 	mov	w8, #0x1                   	// #1
   81cbc:	aa0003f3 	mov	x19, x0
   81cc0:	91004400 	add	x0, x0, #0x11
   81cc4:	9100a3e1 	add	x1, sp, #0x28
   81cc8:	528000e2 	mov	w2, #0x7                   	// #7
   81ccc:	4e080d00 	dup	v0.2d, x8
   81cd0:	3900427f 	strb	wzr, [x19, #16]
   81cd4:	3d8003e0 	str	q0, [sp]
   81cd8:	3d800260 	str	q0, [x19]
   81cdc:	940020aa 	bl	89f84 <memcpy>
   81ce0:	90000068 	adrp	x8, 8d000 <GCC_except_table3+0xa5c>
   81ce4:	3dc003e0 	ldr	q0, [sp]
   81ce8:	911fe108 	add	x8, x8, #0x7f8
   81cec:	52800200 	mov	w0, #0x10                  	// #16
   81cf0:	52800201 	mov	w1, #0x10                  	// #16
   81cf4:	4e181d00 	mov	v0.d[1], x8
   81cf8:	3d8007e0 	str	q0, [sp, #16]
   81cfc:	f9400fe8 	ldr	x8, [sp, #24]
   81d00:	f9001268 	str	x8, [x19, #32]
   81d04:	f9400be8 	ldr	x8, [sp, #16]
   81d08:	f9001a74 	str	x20, [x19, #48]
   81d0c:	f9000e68 	str	x8, [x19, #24]
   81d10:	94000016 	bl	81d68 <__rust_alloc>
   81d14:	b4000220 	cbz	x0, 81d58 <awake_with+0xf8>
   81d18:	9100a288 	add	x8, x20, #0x28
   81d1c:	a9004c1f 	stp	xzr, x19, [x0]
   81d20:	c85ffd09 	ldaxr	x9, [x8]
   81d24:	c80afd00 	stlxr	w10, x0, [x8]
   81d28:	35ffffca 	cbnz	w10, 81d20 <awake_with+0xc0>
   81d2c:	f9000120 	str	x0, [x9]
   81d30:	a9447bf3 	ldp	x19, x30, [sp, #64]
   81d34:	f9401bf4 	ldr	x20, [sp, #48]
   81d38:	910143ff 	add	sp, sp, #0x50
   81d3c:	d65f03c0 	ret
   81d40:	d4200020 	brk	#0x1
   81d44:	d4200020 	brk	#0x1
   81d48:	52800800 	mov	w0, #0x40                  	// #64
   81d4c:	52800201 	mov	w1, #0x10                  	// #16
   81d50:	940015ac 	bl	87400 <_ZN5alloc5alloc18handle_alloc_error17h11286e57f71cf9c1E>
   81d54:	d4200020 	brk	#0x1
   81d58:	52800200 	mov	w0, #0x10                  	// #16
   81d5c:	52800201 	mov	w1, #0x10                  	// #16
   81d60:	940015a8 	bl	87400 <_ZN5alloc5alloc18handle_alloc_error17h11286e57f71cf9c1E>
   81d64:	d4200020 	brk	#0x1

0000000000081d68 <__rust_alloc>:
   81d68:	f81f0ffe 	str	x30, [sp, #-16]!
   81d6c:	9400000d 	bl	81da0 <__rg_alloc>
   81d70:	f84107fe 	ldr	x30, [sp], #16
   81d74:	d65f03c0 	ret

0000000000081d78 <__rust_dealloc>:
   81d78:	f81f0ffe 	str	x30, [sp, #-16]!
   81d7c:	9400000b 	bl	81da8 <__rg_dealloc>
   81d80:	f84107fe 	ldr	x30, [sp], #16
   81d84:	d65f03c0 	ret

0000000000081d88 <__rust_realloc>:
   81d88:	f81f0ffe 	str	x30, [sp, #-16]!
   81d8c:	9400008b 	bl	81fb8 <__rg_realloc>
   81d90:	f84107fe 	ldr	x30, [sp], #16
   81d94:	d65f03c0 	ret

0000000000081d98 <rust_oom>:
   81d98:	14000000 	b	81d98 <rust_oom>
   81d9c:	00000000 	.inst	0x00000000 ; undefined

0000000000081da0 <__rg_alloc>:
   81da0:	1400011c 	b	82210 <_ZN17ruspiro_allocator6memory5alloc17h5bc506a4ad3ec5e3E>
   81da4:	00000000 	.inst	0x00000000 ; undefined

0000000000081da8 <__rg_dealloc>:
   81da8:	f81f0ffe 	str	x30, [sp, #-16]!
   81dac:	f85f8008 	ldur	x8, [x0, #-8]
   81db0:	5297dde9 	mov	w9, #0xbeef                	// #48879
   81db4:	72bbd5a9 	movk	w9, #0xdead, lsl #16
   81db8:	39400d0a 	ldrb	w10, [x8, #3]
   81dbc:	3940090b 	ldrb	w11, [x8, #2]
   81dc0:	3940050c 	ldrb	w12, [x8, #1]
   81dc4:	3940010d 	ldrb	w13, [x8]
   81dc8:	33181d4b 	bfi	w11, w10, #8, #8
   81dcc:	33181d8d 	bfi	w13, w12, #8, #8
   81dd0:	33103d6d 	bfi	w13, w11, #16, #16
   81dd4:	6b0901bf 	cmp	w13, w9
   81dd8:	54000e01 	b.ne	81f98 <__rg_dealloc+0x1f0>  // b.any
   81ddc:	aa0803e9 	mov	x9, x8
   81de0:	39000d1f 	strb	wzr, [x8, #3]
   81de4:	3900091f 	strb	wzr, [x8, #2]
   81de8:	3900051f 	strb	wzr, [x8, #1]
   81dec:	3900011f 	strb	wzr, [x8]
   81df0:	3940350a 	ldrb	w10, [x8, #13]
   81df4:	3840cd2b 	ldrb	w11, [x9, #12]!
   81df8:	b3781d4b 	bfi	x11, x10, #8, #8
   81dfc:	d000006a 	adrp	x10, 8f000 <_ZN17ruspiro_allocator6memory10HEAP_START17had4301f3f1bae9a9E.llvm.13491129622553900858>
   81e00:	39400d2c 	ldrb	w12, [x9, #3]
   81e04:	9100014a 	add	x10, x10, #0x0
   81e08:	3940092d 	ldrb	w13, [x9, #2]
   81e0c:	38404d2e 	ldrb	w14, [x9, #4]!
   81e10:	39404510 	ldrb	w16, [x8, #17]
   81e14:	b3781d8d 	bfi	x13, x12, #8, #8
   81e18:	39400d2f 	ldrb	w15, [x9, #3]
   81e1c:	39400929 	ldrb	w9, [x9, #2]
   81e20:	33181e0e 	bfi	w14, w16, #8, #8
   81e24:	b3703dab 	bfi	x11, x13, #16, #16
   81e28:	33181de9 	bfi	w9, w15, #8, #8
   81e2c:	33103d2e 	bfi	w14, w9, #16, #16
   81e30:	b3607dcb 	bfi	x11, x14, #32, #32
   81e34:	8b080169 	add	x9, x11, x8
   81e38:	c85ffd4b 	ldaxr	x11, [x10]
   81e3c:	eb09017f 	cmp	x11, x9
   81e40:	54000081 	b.ne	81e50 <__rg_dealloc+0xa8>  // b.any
   81e44:	c80bfd48 	stlxr	w11, x8, [x10]
   81e48:	35ffff8b 	cbnz	w11, 81e38 <__rg_dealloc+0x90>
   81e4c:	14000047 	b	81f68 <__rg_dealloc+0x1c0>
   81e50:	d0000069 	adrp	x9, 8f000 <_ZN17ruspiro_allocator6memory10HEAP_START17had4301f3f1bae9a9E.llvm.13491129622553900858>
   81e54:	d5033f5f 	clrex
   81e58:	91002129 	add	x9, x9, #0x8
   81e5c:	14000004 	b	81e6c <__rg_dealloc+0xc4>
   81e60:	d5033f5f 	clrex
   81e64:	eb0b015f 	cmp	x10, x11
   81e68:	54000800 	b.eq	81f68 <__rg_dealloc+0x1c0>  // b.none
   81e6c:	aa0803ea 	mov	x10, x8
   81e70:	38404d41 	ldrb	w1, [x10, #4]!
   81e74:	aa0a03ec 	mov	x12, x10
   81e78:	39400d4b 	ldrb	w11, [x10, #3]
   81e7c:	3940094d 	ldrb	w13, [x10, #2]
   81e80:	3940054e 	ldrb	w14, [x10, #1]
   81e84:	38404d8f 	ldrb	w15, [x12, #4]!
   81e88:	3940154a 	ldrb	w10, [x10, #5]
   81e8c:	b3781d6d 	bfi	x13, x11, #8, #8
   81e90:	b3781dc1 	bfi	x1, x14, #8, #8
   81e94:	39400d90 	ldrb	w16, [x12, #3]
   81e98:	b3703da1 	bfi	x1, x13, #16, #16
   81e9c:	3940098c 	ldrb	w12, [x12, #2]
   81ea0:	33181d4f 	bfi	w15, w10, #8, #8
   81ea4:	33181e0c 	bfi	w12, w16, #8, #8
   81ea8:	33103d8f 	bfi	w15, w12, #16, #16
   81eac:	b3607de1 	bfi	x1, x15, #32, #32
   81eb0:	f1003c3f 	cmp	x1, #0xf
   81eb4:	540005e8 	b.hi	81f70 <__rg_dealloc+0x1c8>  // b.pmore
   81eb8:	8b010d2a 	add	x10, x9, x1, lsl #3
   81ebc:	aa0803eb 	mov	x11, x8
   81ec0:	c8dffd4a 	ldar	x10, [x10]
   81ec4:	38404d61 	ldrb	w1, [x11, #4]!
   81ec8:	d368fd4c 	lsr	x12, x10, #40
   81ecc:	d358fd4e 	lsr	x14, x10, #24
   81ed0:	aa0b03ed 	mov	x13, x11
   81ed4:	d348fd4f 	lsr	x15, x10, #8
   81ed8:	d350fd50 	lsr	x16, x10, #16
   81edc:	3900756c 	strb	w12, [x11, #29]
   81ee0:	d360fd4c 	lsr	x12, x10, #32
   81ee4:	3900656f 	strb	w15, [x11, #25]
   81ee8:	38018daa 	strb	w10, [x13, #24]!
   81eec:	d378fd4f 	lsr	x15, x10, #56
   81ef0:	39000dae 	strb	w14, [x13, #3]
   81ef4:	d370fd4e 	lsr	x14, x10, #48
   81ef8:	390009b0 	strb	w16, [x13, #2]
   81efc:	38004dac 	strb	w12, [x13, #4]!
   81f00:	aa0b03ec 	mov	x12, x11
   81f04:	39000daf 	strb	w15, [x13, #3]
   81f08:	390009ae 	strb	w14, [x13, #2]
   81f0c:	39400d6d 	ldrb	w13, [x11, #3]
   81f10:	3940096e 	ldrb	w14, [x11, #2]
   81f14:	3940056f 	ldrb	w15, [x11, #1]
   81f18:	38404d90 	ldrb	w16, [x12, #4]!
   81f1c:	3940156b 	ldrb	w11, [x11, #5]
   81f20:	b3781dae 	bfi	x14, x13, #8, #8
   81f24:	b3781de1 	bfi	x1, x15, #8, #8
   81f28:	39400d91 	ldrb	w17, [x12, #3]
   81f2c:	b3703dc1 	bfi	x1, x14, #16, #16
   81f30:	3940098c 	ldrb	w12, [x12, #2]
   81f34:	33181d70 	bfi	w16, w11, #8, #8
   81f38:	33181e2c 	bfi	w12, w17, #8, #8
   81f3c:	33103d90 	bfi	w16, w12, #16, #16
   81f40:	b3607e01 	bfi	x1, x16, #32, #32
   81f44:	f1003c3f 	cmp	x1, #0xf
   81f48:	540001e8 	b.hi	81f84 <__rg_dealloc+0x1dc>  // b.pmore
   81f4c:	8b010d2c 	add	x12, x9, x1, lsl #3
   81f50:	c85ffd8b 	ldaxr	x11, [x12]
   81f54:	eb0a017f 	cmp	x11, x10
   81f58:	54fff841 	b.ne	81e60 <__rg_dealloc+0xb8>  // b.any
   81f5c:	c80dfd88 	stlxr	w13, x8, [x12]
   81f60:	35ffff8d 	cbnz	w13, 81f50 <__rg_dealloc+0x1a8>
   81f64:	17ffffc0 	b	81e64 <__rg_dealloc+0xbc>
   81f68:	f84107fe 	ldr	x30, [sp], #16
   81f6c:	d65f03c0 	ret
   81f70:	90000060 	adrp	x0, 8d000 <GCC_except_table3+0xa5c>
   81f74:	91240000 	add	x0, x0, #0x900
   81f78:	52800202 	mov	w2, #0x10                  	// #16
   81f7c:	94001f9c 	bl	89dec <_ZN4core9panicking18panic_bounds_check17h045baa56c9a3a340E>
   81f80:	d4200020 	brk	#0x1
   81f84:	90000060 	adrp	x0, 8d000 <GCC_except_table3+0xa5c>
   81f88:	91246000 	add	x0, x0, #0x918
   81f8c:	52800202 	mov	w2, #0x10                  	// #16
   81f90:	94001f97 	bl	89dec <_ZN4core9panicking18panic_bounds_check17h045baa56c9a3a340E>
   81f94:	d4200020 	brk	#0x1
   81f98:	b0000040 	adrp	x0, 8a000 <memmove>
   81f9c:	90000062 	adrp	x2, 8d000 <GCC_except_table3+0xa5c>
   81fa0:	910ad400 	add	x0, x0, #0x2b5
   81fa4:	528005c1 	mov	w1, #0x2e                  	// #46
   81fa8:	9123a042 	add	x2, x2, #0x8e8
   81fac:	94001f83 	bl	89db8 <_ZN4core9panicking5panic17h9428e358a2a56b0bE>
   81fb0:	d4200020 	brk	#0x1
   81fb4:	00000000 	.inst	0x00000000 ; undefined

0000000000081fb8 <__rg_realloc>:
   81fb8:	f81d0ff6 	str	x22, [sp, #-48]!
   81fbc:	a90153f5 	stp	x21, x20, [sp, #16]
   81fc0:	a9027bf3 	stp	x19, x30, [sp, #32]
   81fc4:	aa0103f6 	mov	x22, x1
   81fc8:	aa0003f4 	mov	x20, x0
   81fcc:	aa0303e0 	mov	x0, x3
   81fd0:	aa0203e1 	mov	x1, x2
   81fd4:	aa0303f5 	mov	x21, x3
   81fd8:	9400008e 	bl	82210 <_ZN17ruspiro_allocator6memory5alloc17h5bc506a4ad3ec5e3E>
   81fdc:	aa0003f3 	mov	x19, x0
   81fe0:	b4000ea0 	cbz	x0, 821b4 <__rg_realloc+0x1fc>
   81fe4:	eb1502df 	cmp	x22, x21
   81fe8:	aa1303e0 	mov	x0, x19
   81fec:	9a9682a2 	csel	x2, x21, x22, hi  // hi = pmore
   81ff0:	aa1403e1 	mov	x1, x20
   81ff4:	94001fe4 	bl	89f84 <memcpy>
   81ff8:	f85f8288 	ldur	x8, [x20, #-8]
   81ffc:	39400d09 	ldrb	w9, [x8, #3]
   82000:	3940090a 	ldrb	w10, [x8, #2]
   82004:	3940050b 	ldrb	w11, [x8, #1]
   82008:	3940010c 	ldrb	w12, [x8]
   8200c:	33181d2a 	bfi	w10, w9, #8, #8
   82010:	5297dde9 	mov	w9, #0xbeef                	// #48879
   82014:	72bbd5a9 	movk	w9, #0xdead, lsl #16
   82018:	33181d6c 	bfi	w12, w11, #8, #8
   8201c:	33103d4c 	bfi	w12, w10, #16, #16
   82020:	6b09019f 	cmp	w12, w9
   82024:	54000e61 	b.ne	821f0 <__rg_realloc+0x238>  // b.any
   82028:	aa0803e9 	mov	x9, x8
   8202c:	39000d1f 	strb	wzr, [x8, #3]
   82030:	3900091f 	strb	wzr, [x8, #2]
   82034:	3900051f 	strb	wzr, [x8, #1]
   82038:	3900011f 	strb	wzr, [x8]
   8203c:	3940350a 	ldrb	w10, [x8, #13]
   82040:	3840cd2b 	ldrb	w11, [x9, #12]!
   82044:	b3781d4b 	bfi	x11, x10, #8, #8
   82048:	b000006a 	adrp	x10, 8f000 <_ZN17ruspiro_allocator6memory10HEAP_START17had4301f3f1bae9a9E.llvm.13491129622553900858>
   8204c:	39400d2c 	ldrb	w12, [x9, #3]
   82050:	9100014a 	add	x10, x10, #0x0
   82054:	3940092d 	ldrb	w13, [x9, #2]
   82058:	38404d2e 	ldrb	w14, [x9, #4]!
   8205c:	39404510 	ldrb	w16, [x8, #17]
   82060:	b3781d8d 	bfi	x13, x12, #8, #8
   82064:	39400d2f 	ldrb	w15, [x9, #3]
   82068:	39400929 	ldrb	w9, [x9, #2]
   8206c:	33181e0e 	bfi	w14, w16, #8, #8
   82070:	b3703dab 	bfi	x11, x13, #16, #16
   82074:	33181de9 	bfi	w9, w15, #8, #8
   82078:	33103d2e 	bfi	w14, w9, #16, #16
   8207c:	b3607dcb 	bfi	x11, x14, #32, #32
   82080:	8b080169 	add	x9, x11, x8
   82084:	c85ffd4b 	ldaxr	x11, [x10]
   82088:	eb09017f 	cmp	x11, x9
   8208c:	54000081 	b.ne	8209c <__rg_realloc+0xe4>  // b.any
   82090:	c80bfd48 	stlxr	w11, x8, [x10]
   82094:	35ffff8b 	cbnz	w11, 82084 <__rg_realloc+0xcc>
   82098:	14000047 	b	821b4 <__rg_realloc+0x1fc>
   8209c:	b0000069 	adrp	x9, 8f000 <_ZN17ruspiro_allocator6memory10HEAP_START17had4301f3f1bae9a9E.llvm.13491129622553900858>
   820a0:	d5033f5f 	clrex
   820a4:	91002129 	add	x9, x9, #0x8
   820a8:	14000004 	b	820b8 <__rg_realloc+0x100>
   820ac:	d5033f5f 	clrex
   820b0:	eb0b015f 	cmp	x10, x11
   820b4:	54000800 	b.eq	821b4 <__rg_realloc+0x1fc>  // b.none
   820b8:	aa0803ea 	mov	x10, x8
   820bc:	38404d41 	ldrb	w1, [x10, #4]!
   820c0:	aa0a03ec 	mov	x12, x10
   820c4:	39400d4b 	ldrb	w11, [x10, #3]
   820c8:	3940094d 	ldrb	w13, [x10, #2]
   820cc:	3940054e 	ldrb	w14, [x10, #1]
   820d0:	38404d8f 	ldrb	w15, [x12, #4]!
   820d4:	3940154a 	ldrb	w10, [x10, #5]
   820d8:	b3781d6d 	bfi	x13, x11, #8, #8
   820dc:	b3781dc1 	bfi	x1, x14, #8, #8
   820e0:	39400d90 	ldrb	w16, [x12, #3]
   820e4:	b3703da1 	bfi	x1, x13, #16, #16
   820e8:	3940098c 	ldrb	w12, [x12, #2]
   820ec:	33181d4f 	bfi	w15, w10, #8, #8
   820f0:	33181e0c 	bfi	w12, w16, #8, #8
   820f4:	33103d8f 	bfi	w15, w12, #16, #16
   820f8:	b3607de1 	bfi	x1, x15, #32, #32
   820fc:	f1003c3f 	cmp	x1, #0xf
   82100:	54000648 	b.hi	821c8 <__rg_realloc+0x210>  // b.pmore
   82104:	8b010d2a 	add	x10, x9, x1, lsl #3
   82108:	aa0803eb 	mov	x11, x8
   8210c:	c8dffd4a 	ldar	x10, [x10]
   82110:	38404d61 	ldrb	w1, [x11, #4]!
   82114:	d368fd4c 	lsr	x12, x10, #40
   82118:	d358fd4e 	lsr	x14, x10, #24
   8211c:	aa0b03ed 	mov	x13, x11
   82120:	d348fd4f 	lsr	x15, x10, #8
   82124:	d350fd50 	lsr	x16, x10, #16
   82128:	3900756c 	strb	w12, [x11, #29]
   8212c:	d360fd4c 	lsr	x12, x10, #32
   82130:	3900656f 	strb	w15, [x11, #25]
   82134:	38018daa 	strb	w10, [x13, #24]!
   82138:	d378fd4f 	lsr	x15, x10, #56
   8213c:	39000dae 	strb	w14, [x13, #3]
   82140:	d370fd4e 	lsr	x14, x10, #48
   82144:	390009b0 	strb	w16, [x13, #2]
   82148:	38004dac 	strb	w12, [x13, #4]!
   8214c:	aa0b03ec 	mov	x12, x11
   82150:	39000daf 	strb	w15, [x13, #3]
   82154:	390009ae 	strb	w14, [x13, #2]
   82158:	39400d6d 	ldrb	w13, [x11, #3]
   8215c:	3940096e 	ldrb	w14, [x11, #2]
   82160:	3940056f 	ldrb	w15, [x11, #1]
   82164:	38404d90 	ldrb	w16, [x12, #4]!
   82168:	3940156b 	ldrb	w11, [x11, #5]
   8216c:	b3781dae 	bfi	x14, x13, #8, #8
   82170:	b3781de1 	bfi	x1, x15, #8, #8
   82174:	39400d91 	ldrb	w17, [x12, #3]
   82178:	b3703dc1 	bfi	x1, x14, #16, #16
   8217c:	3940098c 	ldrb	w12, [x12, #2]
   82180:	33181d70 	bfi	w16, w11, #8, #8
   82184:	33181e2c 	bfi	w12, w17, #8, #8
   82188:	33103d90 	bfi	w16, w12, #16, #16
   8218c:	b3607e01 	bfi	x1, x16, #32, #32
   82190:	f1003c3f 	cmp	x1, #0xf
   82194:	54000248 	b.hi	821dc <__rg_realloc+0x224>  // b.pmore
   82198:	8b010d2c 	add	x12, x9, x1, lsl #3
   8219c:	c85ffd8b 	ldaxr	x11, [x12]
   821a0:	eb0a017f 	cmp	x11, x10
   821a4:	54fff841 	b.ne	820ac <__rg_realloc+0xf4>  // b.any
   821a8:	c80dfd88 	stlxr	w13, x8, [x12]
   821ac:	35ffff8d 	cbnz	w13, 8219c <__rg_realloc+0x1e4>
   821b0:	17ffffc0 	b	820b0 <__rg_realloc+0xf8>
   821b4:	aa1303e0 	mov	x0, x19
   821b8:	a9427bf3 	ldp	x19, x30, [sp, #32]
   821bc:	a94153f5 	ldp	x21, x20, [sp, #16]
   821c0:	f84307f6 	ldr	x22, [sp], #48
   821c4:	d65f03c0 	ret
   821c8:	f0000040 	adrp	x0, 8d000 <GCC_except_table3+0xa5c>
   821cc:	91240000 	add	x0, x0, #0x900
   821d0:	52800202 	mov	w2, #0x10                  	// #16
   821d4:	94001f06 	bl	89dec <_ZN4core9panicking18panic_bounds_check17h045baa56c9a3a340E>
   821d8:	d4200020 	brk	#0x1
   821dc:	f0000040 	adrp	x0, 8d000 <GCC_except_table3+0xa5c>
   821e0:	91246000 	add	x0, x0, #0x918
   821e4:	52800202 	mov	w2, #0x10                  	// #16
   821e8:	94001f01 	bl	89dec <_ZN4core9panicking18panic_bounds_check17h045baa56c9a3a340E>
   821ec:	d4200020 	brk	#0x1
   821f0:	90000040 	adrp	x0, 8a000 <memmove>
   821f4:	f0000042 	adrp	x2, 8d000 <GCC_except_table3+0xa5c>
   821f8:	910ad400 	add	x0, x0, #0x2b5
   821fc:	528005c1 	mov	w1, #0x2e                  	// #46
   82200:	9123a042 	add	x2, x2, #0x8e8
   82204:	94001eed 	bl	89db8 <_ZN4core9panicking5panic17h9428e358a2a56b0bE>
   82208:	d4200020 	brk	#0x1
   8220c:	00000000 	.inst	0x00000000 ; undefined

0000000000082210 <_ZN17ruspiro_allocator6memory5alloc17h5bc506a4ad3ec5e3E>:
   82210:	d10243ff 	sub	sp, sp, #0x90
   82214:	a90753f5 	stp	x21, x20, [sp, #112]
   82218:	a9087bf3 	stp	x19, x30, [sp, #128]
   8221c:	90000068 	adrp	x8, 8e000 <_ZN4core3fmt3num14DEC_DIGITS_LUT17h46bba502bada2534E+0x1c0>
   82220:	b000006c 	adrp	x12, 8f000 <_ZN17ruspiro_allocator6memory10HEAP_START17had4301f3f1bae9a9E.llvm.13491129622553900858>
   82224:	9100018c 	add	x12, x12, #0x0
   82228:	f9446d08 	ldr	x8, [x8, #2264]
   8222c:	c85ffd89 	ldaxr	x9, [x12]
   82230:	b5000089 	cbnz	x9, 82240 <_ZN17ruspiro_allocator6memory5alloc17h5bc506a4ad3ec5e3E+0x30>
   82234:	c809fd88 	stlxr	w9, x8, [x12]
   82238:	35ffffa9 	cbnz	w9, 8222c <_ZN17ruspiro_allocator6memory5alloc17h5bc506a4ad3ec5e3E+0x1c>
   8223c:	14000002 	b	82244 <_ZN17ruspiro_allocator6memory5alloc17h5bc506a4ad3ec5e3E+0x34>
   82240:	d5033f5f 	clrex
   82244:	5280002d 	mov	w13, #0x1                   	// #1
   82248:	9000004f 	adrp	x15, 8a000 <memmove>
   8224c:	9ac121a8 	lsl	x8, x13, x1
   82250:	9100f109 	add	x9, x8, #0x3c
   82254:	aa1f03ee 	mov	x14, xzr
   82258:	8b00012a 	add	x10, x9, x0
   8225c:	528001eb 	mov	w11, #0xf                   	// #15
   82260:	910681ef 	add	x15, x15, #0x1a0
   82264:	f100f1df 	cmp	x14, #0x3c
   82268:	54000160 	b.eq	82294 <_ZN17ruspiro_allocator6memory5alloc17h5bc506a4ad3ec5e3E+0x84>  // b.none
   8226c:	b86e69f0 	ldr	w16, [x15, x14]
   82270:	910011ce 	add	x14, x14, #0x4
   82274:	d10005ad 	sub	x13, x13, #0x1
   82278:	eb10015f 	cmp	x10, x16
   8227c:	54ffff42 	b.cs	82264 <_ZN17ruspiro_allocator6memory5alloc17h5bc506a4ad3ec5e3E+0x54>  // b.hs, b.nlast
   82280:	5280004a 	mov	w10, #0x2                   	// #2
   82284:	1a9f354a 	csinc	w10, w10, wzr, cc  // cc = lo, ul, last
   82288:	9240014a 	and	x10, x10, #0x1
   8228c:	cb0d014b 	sub	x11, x10, x13
   82290:	b86b79ea 	ldr	w10, [x15, x11, lsl #2]
   82294:	b000006d 	adrp	x13, 8f000 <_ZN17ruspiro_allocator6memory10HEAP_START17had4301f3f1bae9a9E.llvm.13491129622553900858>
   82298:	910021ad 	add	x13, x13, #0x8
   8229c:	8b0b0dad 	add	x13, x13, x11, lsl #3
   822a0:	c8dffdb3 	ldar	x19, [x13]
   822a4:	b4000333 	cbz	x19, 82308 <_ZN17ruspiro_allocator6memory5alloc17h5bc506a4ad3ec5e3E+0xf8>
   822a8:	aa1303ef 	mov	x15, x19
   822ac:	3841cdee 	ldrb	w14, [x15, #28]!
   822b0:	aa0f03f1 	mov	x17, x15
   822b4:	39400df0 	ldrb	w16, [x15, #3]
   822b8:	394009f2 	ldrb	w18, [x15, #2]
   822bc:	394005e0 	ldrb	w0, [x15, #1]
   822c0:	38404e22 	ldrb	w2, [x17, #4]!
   822c4:	394015ef 	ldrb	w15, [x15, #5]
   822c8:	b3781e12 	bfi	x18, x16, #8, #8
   822cc:	b3781c0e 	bfi	x14, x0, #8, #8
   822d0:	39400e23 	ldrb	w3, [x17, #3]
   822d4:	b3703e4e 	bfi	x14, x18, #16, #16
   822d8:	39400a31 	ldrb	w17, [x17, #2]
   822dc:	33181de2 	bfi	w2, w15, #8, #8
   822e0:	33181c71 	bfi	w17, w3, #8, #8
   822e4:	33103e22 	bfi	w2, w17, #16, #16
   822e8:	b3607c4e 	bfi	x14, x2, #32, #32
   822ec:	c85ffdaf 	ldaxr	x15, [x13]
   822f0:	eb1301ff 	cmp	x15, x19
   822f4:	54000081 	b.ne	82304 <_ZN17ruspiro_allocator6memory5alloc17h5bc506a4ad3ec5e3E+0xf4>  // b.any
   822f8:	c80ffdae 	stlxr	w15, x14, [x13]
   822fc:	35ffff8f 	cbnz	w15, 822ec <_ZN17ruspiro_allocator6memory5alloc17h5bc506a4ad3ec5e3E+0xdc>
   82300:	14000006 	b	82318 <_ZN17ruspiro_allocator6memory5alloc17h5bc506a4ad3ec5e3E+0x108>
   82304:	d5033f5f 	clrex
   82308:	c85ffd93 	ldaxr	x19, [x12]
   8230c:	8b0a026d 	add	x13, x19, x10
   82310:	c80efd8d 	stlxr	w14, x13, [x12]
   82314:	35ffffae 	cbnz	w14, 82308 <_ZN17ruspiro_allocator6memory5alloc17h5bc506a4ad3ec5e3E+0xf8>
   82318:	d358fe6c 	lsr	x12, x19, #24
   8231c:	f100f99f 	cmp	x12, #0x3e
   82320:	f90003f3 	str	x19, [sp]
   82324:	54000f08 	b.hi	82504 <_ZN17ruspiro_allocator6memory5alloc17h5bc506a4ad3ec5e3E+0x2f4>  // b.pmore
   82328:	52801bcc 	mov	w12, #0xde                  	// #222
   8232c:	528015ad 	mov	w13, #0xad                  	// #173
   82330:	528017ce 	mov	w14, #0xbe                  	// #190
   82334:	52801def 	mov	w15, #0xef                  	// #239
   82338:	91007260 	add	x0, x19, #0x1c
   8233c:	52800202 	mov	w2, #0x10                  	// #16
   82340:	39000e6c 	strb	w12, [x19, #3]
   82344:	aa1303ec 	mov	x12, x19
   82348:	39000a6d 	strb	w13, [x19, #2]
   8234c:	d368fd6d 	lsr	x13, x11, #40
   82350:	3900066e 	strb	w14, [x19, #1]
   82354:	d358fd6e 	lsr	x14, x11, #24
   82358:	3900026f 	strb	w15, [x19]
   8235c:	aa1303ef 	mov	x15, x19
   82360:	38004d8b 	strb	w11, [x12, #4]!
   82364:	3900266d 	strb	w13, [x19, #9]
   82368:	d350fd6d 	lsr	x13, x11, #16
   8236c:	39000d8e 	strb	w14, [x12, #3]
   82370:	d348fd6e 	lsr	x14, x11, #8
   82374:	3900098d 	strb	w13, [x12, #2]
   82378:	d360fd6d 	lsr	x13, x11, #32
   8237c:	3900166e 	strb	w14, [x19, #5]
   82380:	d378fd6e 	lsr	x14, x11, #56
   82384:	d370fd6b 	lsr	x11, x11, #48
   82388:	8b090269 	add	x9, x19, x9
   8238c:	38004d8d 	strb	w13, [x12, #4]!
   82390:	39000d8e 	strb	w14, [x12, #3]
   82394:	d350fd4d 	lsr	x13, x10, #16
   82398:	3800cdea 	strb	w10, [x15, #12]!
   8239c:	3900098b 	strb	w11, [x12, #2]
   823a0:	d358fd4b 	lsr	x11, x10, #24
   823a4:	d368fd4c 	lsr	x12, x10, #40
   823a8:	390009ed 	strb	w13, [x15, #2]
   823ac:	39000deb 	strb	w11, [x15, #3]
   823b0:	d360fd4b 	lsr	x11, x10, #32
   823b4:	3900466c 	strb	w12, [x19, #17]
   823b8:	aa1303ec 	mov	x12, x19
   823bc:	38004deb 	strb	w11, [x15, #4]!
   823c0:	d378fd4b 	lsr	x11, x10, #56
   823c4:	d348fd4d 	lsr	x13, x10, #8
   823c8:	d370fd4a 	lsr	x10, x10, #48
   823cc:	cb0803e8 	neg	x8, x8
   823d0:	39000deb 	strb	w11, [x15, #3]
   823d4:	d368fc2b 	lsr	x11, x1, #40
   823d8:	3900366d 	strb	w13, [x19, #13]
   823dc:	12b82014 	mov	w20, #0x3effffff            	// #1056964607
   823e0:	38014d81 	strb	w1, [x12, #20]!
   823e4:	390009ea 	strb	w10, [x15, #2]
   823e8:	d358fc2a 	lsr	x10, x1, #24
   823ec:	3900666b 	strb	w11, [x19, #25]
   823f0:	d350fc2b 	lsr	x11, x1, #16
   823f4:	39000d8a 	strb	w10, [x12, #3]
   823f8:	d348fc2a 	lsr	x10, x1, #8
   823fc:	3900098b 	strb	w11, [x12, #2]
   82400:	d360fc2b 	lsr	x11, x1, #32
   82404:	3900566a 	strb	w10, [x19, #21]
   82408:	d378fc2a 	lsr	x10, x1, #56
   8240c:	38004d8b 	strb	w11, [x12, #4]!
   82410:	d370fc2b 	lsr	x11, x1, #48
   82414:	2a1f03e1 	mov	w1, wzr
   82418:	8a080135 	and	x21, x9, x8
   8241c:	39000d8a 	strb	w10, [x12, #3]
   82420:	3900098b 	strb	w11, [x12, #2]
   82424:	94001f21 	bl	8a0a8 <memset>
   82428:	aa1303e8 	mov	x8, x19
   8242c:	d348fea9 	lsr	x9, x21, #8
   82430:	d360feaa 	lsr	x10, x21, #32
   82434:	d368feac 	lsr	x12, x21, #40
   82438:	3802cd15 	strb	w21, [x8, #44]!
   8243c:	aa0803ed 	mov	x13, x8
   82440:	aa0803eb 	mov	x11, x8
   82444:	39000509 	strb	w9, [x8, #1]
   82448:	d350fea9 	lsr	x9, x21, #16
   8244c:	38002da9 	strb	w9, [x13, #2]!
   82450:	d358fea9 	lsr	x9, x21, #24
   82454:	38004d6a 	strb	w10, [x11, #4]!
   82458:	aa0b03ea 	mov	x10, x11
   8245c:	3900056c 	strb	w12, [x11, #1]
   82460:	d370feac 	lsr	x12, x21, #48
   82464:	390005a9 	strb	w9, [x13, #1]
   82468:	d378fea9 	lsr	x9, x21, #56
   8246c:	38002d4c 	strb	w12, [x10, #2]!
   82470:	39000549 	strb	w9, [x10, #1]
   82474:	3900e67f 	strb	wzr, [x19, #57]
   82478:	3900d67f 	strb	wzr, [x19, #53]
   8247c:	38034e7f 	strb	wzr, [x19, #52]!
   82480:	39000e7f 	strb	wzr, [x19, #3]
   82484:	39000a7f 	strb	wzr, [x19, #2]
   82488:	f94003e9 	ldr	x9, [sp]
   8248c:	38004e7f 	strb	wzr, [x19, #4]!
   82490:	39000e7f 	strb	wzr, [x19, #3]
   82494:	39000a7f 	strb	wzr, [x19, #2]
   82498:	f81f82a9 	stur	x9, [x21, #-8]
   8249c:	39400549 	ldrb	w9, [x10, #1]
   824a0:	3940014a 	ldrb	w10, [x10]
   824a4:	3940056c 	ldrb	w12, [x11, #1]
   824a8:	3940016b 	ldrb	w11, [x11]
   824ac:	394005ae 	ldrb	w14, [x13, #1]
   824b0:	394001ad 	ldrb	w13, [x13]
   824b4:	33181d2a 	bfi	w10, w9, #8, #8
   824b8:	3940050f 	ldrb	w15, [x8, #1]
   824bc:	39400100 	ldrb	w0, [x8]
   824c0:	33181d8b 	bfi	w11, w12, #8, #8
   824c4:	33103d4b 	bfi	w11, w10, #16, #16
   824c8:	b3781dcd 	bfi	x13, x14, #8, #8
   824cc:	b3781de0 	bfi	x0, x15, #8, #8
   824d0:	b3703da0 	bfi	x0, x13, #16, #16
   824d4:	b3607d60 	bfi	x0, x11, #32, #32
   824d8:	eb14001f 	cmp	x0, x20
   824dc:	54000228 	b.hi	82520 <_ZN17ruspiro_allocator6memory5alloc17h5bc506a4ad3ec5e3E+0x310>  // b.pmore
   824e0:	f85f8008 	ldur	x8, [x0, #-8]
   824e4:	f94003e9 	ldr	x9, [sp]
   824e8:	f90007e8 	str	x8, [sp, #8]
   824ec:	eb08013f 	cmp	x9, x8
   824f0:	54000261 	b.ne	8253c <_ZN17ruspiro_allocator6memory5alloc17h5bc506a4ad3ec5e3E+0x32c>  // b.any
   824f4:	a9487bf3 	ldp	x19, x30, [sp, #128]
   824f8:	a94753f5 	ldp	x21, x20, [sp, #112]
   824fc:	910243ff 	add	sp, sp, #0x90
   82500:	d65f03c0 	ret
   82504:	90000040 	adrp	x0, 8a000 <memmove>
   82508:	f0000042 	adrp	x2, 8d000 <GCC_except_table3+0xa5c>
   8250c:	91077000 	add	x0, x0, #0x1dc
   82510:	528005e1 	mov	w1, #0x2f                  	// #47
   82514:	9121c042 	add	x2, x2, #0x870
   82518:	94001e28 	bl	89db8 <_ZN4core9panicking5panic17h9428e358a2a56b0bE>
   8251c:	d4200020 	brk	#0x1
   82520:	90000040 	adrp	x0, 8a000 <memmove>
   82524:	f0000042 	adrp	x2, 8d000 <GCC_except_table3+0xa5c>
   82528:	91091000 	add	x0, x0, #0x244
   8252c:	528006e1 	mov	w1, #0x37                  	// #55
   82530:	91222042 	add	x2, x2, #0x888
   82534:	94001e21 	bl	89db8 <_ZN4core9panicking5panic17h9428e358a2a56b0bE>
   82538:	d4200020 	brk	#0x1
   8253c:	910003e8 	mov	x8, sp
   82540:	910023e9 	add	x9, sp, #0x8
   82544:	910183ea 	add	x10, sp, #0x60
   82548:	f0000041 	adrp	x1, 8d000 <GCC_except_table3+0xa5c>
   8254c:	91234021 	add	x1, x1, #0x8d0
   82550:	910043e0 	add	x0, sp, #0x10
   82554:	a90627e8 	stp	x8, x9, [sp, #96]
   82558:	90000008 	adrp	x8, 82000 <__rg_realloc+0x48>
   8255c:	91166108 	add	x8, x8, #0x598
   82560:	9101a3e9 	add	x9, sp, #0x68
   82564:	a9027fff 	stp	xzr, xzr, [sp, #32]
   82568:	a90423ea 	stp	x10, x8, [sp, #64]
   8256c:	5280006a 	mov	w10, #0x3                   	// #3
   82570:	a90523e9 	stp	x9, x8, [sp, #80]
   82574:	f0000048 	adrp	x8, 8d000 <GCC_except_table3+0xa5c>
   82578:	91228108 	add	x8, x8, #0x8a0
   8257c:	910103e9 	add	x9, sp, #0x40
   82580:	a9012be8 	stp	x8, x10, [sp, #16]
   82584:	52800048 	mov	w8, #0x2                   	// #2
   82588:	a90323e9 	stp	x9, x8, [sp, #48]
   8258c:	94001e2d 	bl	89e40 <_ZN4core9panicking9panic_fmt17hb8a63420dcd6dc09E>
   82590:	d4200020 	brk	#0x1
   82594:	00000000 	.inst	0x00000000 ; undefined

0000000000082598 <_ZN42_$LT$$RF$T$u20$as$u20$core..fmt..Debug$GT$3fmt17he5794a7b823707abE>:
   82598:	f81e0ff4 	str	x20, [sp, #-32]!
   8259c:	a9017bf3 	stp	x19, x30, [sp, #16]
   825a0:	f9400014 	ldr	x20, [x0]
   825a4:	aa0103e0 	mov	x0, x1
   825a8:	aa0103f3 	mov	x19, x1
   825ac:	94001bcf 	bl	894e8 <_ZN4core3fmt9Formatter15debug_lower_hex17h597d04d17268b5b5E>
   825b0:	360000c0 	tbz	w0, #0, 825c8 <_ZN42_$LT$$RF$T$u20$as$u20$core..fmt..Debug$GT$3fmt17he5794a7b823707abE+0x30>
   825b4:	aa1303e1 	mov	x1, x19
   825b8:	aa1403e0 	mov	x0, x20
   825bc:	a9417bf3 	ldp	x19, x30, [sp, #16]
   825c0:	f84207f4 	ldr	x20, [sp], #32
   825c4:	140014f3 	b	87990 <_ZN4core3fmt3num53_$LT$impl$u20$core..fmt..LowerHex$u20$for$u20$i64$GT$3fmt17h9d17b57bf7f81c93E>
   825c8:	aa1303e0 	mov	x0, x19
   825cc:	94001bca 	bl	894f4 <_ZN4core3fmt9Formatter15debug_upper_hex17h69356f446087d521E>
   825d0:	360000c0 	tbz	w0, #0, 825e8 <_ZN42_$LT$$RF$T$u20$as$u20$core..fmt..Debug$GT$3fmt17he5794a7b823707abE+0x50>
   825d4:	aa1303e1 	mov	x1, x19
   825d8:	aa1403e0 	mov	x0, x20
   825dc:	a9417bf3 	ldp	x19, x30, [sp, #16]
   825e0:	f84207f4 	ldr	x20, [sp], #32
   825e4:	14001510 	b	87a24 <_ZN4core3fmt3num53_$LT$impl$u20$core..fmt..UpperHex$u20$for$u20$i64$GT$3fmt17h3f96354a0cf1bb83E>
   825e8:	aa1303e1 	mov	x1, x19
   825ec:	aa1403e0 	mov	x0, x20
   825f0:	a9417bf3 	ldp	x19, x30, [sp, #16]
   825f4:	f84207f4 	ldr	x20, [sp], #32
   825f8:	140016b2 	b	880c0 <_ZN4core3fmt3num3imp52_$LT$impl$u20$core..fmt..Display$u20$for$u20$u64$GT$3fmt17hd5aecdcee7d35043E>
   825fc:	00000000 	.inst	0x00000000 ; undefined

0000000000082600 <_ZN4core3ptr18real_drop_in_place17h557394cb1f98129bE>:
   82600:	f9400401 	ldr	x1, [x0, #8]
   82604:	b4000081 	cbz	x1, 82614 <_ZN4core3ptr18real_drop_in_place17h557394cb1f98129bE+0x14>
   82608:	f9400000 	ldr	x0, [x0]
   8260c:	52800022 	mov	w2, #0x1                   	// #1
   82610:	17fffdda 	b	81d78 <__rust_dealloc>
   82614:	d65f03c0 	ret

0000000000082618 <_ZN60_$LT$alloc..string..String$u20$as$u20$core..fmt..Display$GT$3fmt17he9b65cb3b2e3446eE>:
   82618:	f9400008 	ldr	x8, [x0]
   8261c:	aa0103e2 	mov	x2, x1
   82620:	f9400809 	ldr	x9, [x0, #16]
   82624:	aa0803e0 	mov	x0, x8
   82628:	aa0903e1 	mov	x1, x9
   8262c:	14001d09 	b	89a50 <_ZN42_$LT$str$u20$as$u20$core..fmt..Display$GT$3fmt17h5a9de3cd403484d2E>

0000000000082630 <_ZN13ruspiro_brain3run17h338e4500e3c81153E>:
   82630:	a9bf7bf3 	stp	x19, x30, [sp, #-16]!
   82634:	940011c7 	bl	86d50 <_ZN22ruspiro_interrupt_core17enable_interrupts17hae901d9cabef88e4E>
   82638:	90000068 	adrp	x8, 8e000 <_ZN4core3fmt3num14DEC_DIGITS_LUT17h46bba502bada2534E+0x1c0>
   8263c:	f9445108 	ldr	x8, [x8, #2208]
   82640:	91004113 	add	x19, x8, #0x10
   82644:	aa1303e0 	mov	x0, x19
   82648:	940000e8 	bl	829e8 <_ZN13ruspiro_brain5brain5Brain5think17ha28041796c53f11fE>
   8264c:	17fffffe 	b	82644 <_ZN13ruspiro_brain3run17h338e4500e3c81153E+0x14>

0000000000082650 <__kernel_startup>:
   82650:	d10243ff 	sub	sp, sp, #0x90
   82654:	f9003bf4 	str	x20, [sp, #112]
   82658:	a9087bf3 	stp	x19, x30, [sp, #128]
   8265c:	340000a0 	cbz	w0, 82670 <__kernel_startup+0x20>
   82660:	a9487bf3 	ldp	x19, x30, [sp, #128]
   82664:	f9403bf4 	ldr	x20, [sp, #112]
   82668:	910243ff 	add	sp, sp, #0x90
   8266c:	d65f03c0 	ret
   82670:	f0000048 	adrp	x8, 8d000 <GCC_except_table3+0xa5c>
   82674:	52800033 	mov	w19, #0x1                   	// #1
   82678:	91254108 	add	x8, x8, #0x950
   8267c:	52800109 	mov	w9, #0x8                   	// #8
   82680:	910103e0 	add	x0, sp, #0x40
   82684:	a9057fff 	stp	xzr, xzr, [sp, #80]
   82688:	9100a3f4 	add	x20, sp, #0x28
   8268c:	a9044fe8 	stp	x8, x19, [sp, #64]
   82690:	9100a3e8 	add	x8, sp, #0x28
   82694:	a9067fe9 	stp	x9, xzr, [sp, #96]
   82698:	94001364 	bl	87428 <_ZN5alloc3fmt6format17hafdd08834ed4019dE>
   8269c:	90000008 	adrp	x8, 82000 <__rg_realloc+0x48>
   826a0:	52800049 	mov	w9, #0x2                   	// #2
   826a4:	91186108 	add	x8, x8, #0x618
   826a8:	a9057fff 	stp	xzr, xzr, [sp, #80]
   826ac:	a901a3f4 	stp	x20, x8, [sp, #24]
   826b0:	f0000048 	adrp	x8, 8d000 <GCC_except_table3+0xa5c>
   826b4:	9124c108 	add	x8, x8, #0x930
   826b8:	a90427e8 	stp	x8, x9, [sp, #64]
   826bc:	910063e8 	add	x8, sp, #0x18
   826c0:	a9064fe8 	stp	x8, x19, [sp, #96]
   826c4:	910003e8 	mov	x8, sp
   826c8:	910103e0 	add	x0, sp, #0x40
   826cc:	94001357 	bl	87428 <_ZN5alloc3fmt6format17hafdd08834ed4019dE>
   826d0:	f9401be1 	ldr	x1, [sp, #48]
   826d4:	b4000081 	cbz	x1, 826e4 <__kernel_startup+0x94>
   826d8:	f94017e0 	ldr	x0, [sp, #40]
   826dc:	52800022 	mov	w2, #0x1                   	// #1
   826e0:	97fffda6 	bl	81d78 <__rust_dealloc>
   826e4:	a94023f3 	ldp	x19, x8, [sp]
   826e8:	f9400be1 	ldr	x1, [sp, #16]
   826ec:	a90423f3 	stp	x19, x8, [sp, #64]
   826f0:	f9002be1 	str	x1, [sp, #80]
   826f4:	aa1303e0 	mov	x0, x19
   826f8:	940012e2 	bl	87280 <_ZN15ruspiro_console5print17h057cac26d371b76dE>
   826fc:	f94027e1 	ldr	x1, [sp, #72]
   82700:	b4000081 	cbz	x1, 82710 <__kernel_startup+0xc0>
   82704:	aa1303e0 	mov	x0, x19
   82708:	52800022 	mov	w2, #0x1                   	// #1
   8270c:	97fffd9b 	bl	81d78 <__rust_dealloc>
   82710:	90000073 	adrp	x19, 8e000 <_ZN4core3fmt3num14DEC_DIGITS_LUT17h46bba502bada2534E+0x1c0>
   82714:	f9445273 	ldr	x19, [x19, #2208]
   82718:	aa1303e0 	mov	x0, x19
   8271c:	940012ef 	bl	872d8 <_ZN12ruspiro_lock8spinlock8Spinlock6aquire17h93e053530659f177E>
   82720:	91004260 	add	x0, x19, #0x10
   82724:	94000069 	bl	828c8 <_ZN13ruspiro_brain5brain5Brain10initialize17h87757bc66cd88b5aE>
   82728:	aa1303e0 	mov	x0, x19
   8272c:	940012f5 	bl	87300 <_ZN12ruspiro_lock8spinlock8Spinlock7release17h540c080833faeca3E>
   82730:	97fffd4c 	bl	81c60 <awake_with>
   82734:	a9487bf3 	ldp	x19, x30, [sp, #128]
   82738:	f9403bf4 	ldr	x20, [sp, #112]
   8273c:	910243ff 	add	sp, sp, #0x90
   82740:	d65f03c0 	ret
   82744:	aa0003f3 	mov	x19, x0
   82748:	910103e0 	add	x0, sp, #0x40
   8274c:	97ffffad 	bl	82600 <_ZN4core3ptr18real_drop_in_place17h557394cb1f98129bE>
   82750:	aa1303e0 	mov	x0, x19
   82754:	94000567 	bl	83cf0 <_Unwind_Resume>
   82758:	d4200020 	brk	#0x1
   8275c:	aa0003f3 	mov	x19, x0
   82760:	9100a3e0 	add	x0, sp, #0x28
   82764:	97ffffa7 	bl	82600 <_ZN4core3ptr18real_drop_in_place17h557394cb1f98129bE>
   82768:	aa1303e0 	mov	x0, x19
   8276c:	94000561 	bl	83cf0 <_Unwind_Resume>
   82770:	d4200020 	brk	#0x1
   82774:	00000000 	.inst	0x00000000 ; undefined

0000000000082778 <__kernel_run>:
   82778:	f81f0ffe 	str	x30, [sp, #-16]!
   8277c:	97ffffad 	bl	82630 <_ZN13ruspiro_brain3run17h338e4500e3c81153E>
   82780:	d4200020 	brk	#0x1
   82784:	00000000 	.inst	0x00000000 ; undefined

0000000000082788 <_ZN4core3ptr18real_drop_in_place17h404dabf49ca85fc0E>:
   82788:	f9400008 	ldr	x8, [x0]
   8278c:	f9401001 	ldr	x1, [x0, #32]
   82790:	aa0803e0 	mov	x0, x8
   82794:	d61f0020 	br	x1

0000000000082798 <_ZN4core3ptr18real_drop_in_place17h4d1abc2134190149E>:
   82798:	a9bf7bf3 	stp	x19, x30, [sp, #-16]!
   8279c:	aa0003f3 	mov	x19, x0
   827a0:	a9402000 	ldp	x0, x8, [x0]
   827a4:	f9400108 	ldr	x8, [x8]
   827a8:	d63f0100 	blr	x8
   827ac:	f9400668 	ldr	x8, [x19, #8]
   827b0:	f9400501 	ldr	x1, [x8, #8]
   827b4:	b40000a1 	cbz	x1, 827c8 <_ZN4core3ptr18real_drop_in_place17h4d1abc2134190149E+0x30>
   827b8:	f9400260 	ldr	x0, [x19]
   827bc:	f9400902 	ldr	x2, [x8, #16]
   827c0:	a8c17bf3 	ldp	x19, x30, [sp], #16
   827c4:	17fffd6d 	b	81d78 <__rust_dealloc>
   827c8:	a8c17bf3 	ldp	x19, x30, [sp], #16
   827cc:	d65f03c0 	ret
   827d0:	a9400668 	ldp	x8, x1, [x19]
   827d4:	aa0003f3 	mov	x19, x0
   827d8:	aa0803e0 	mov	x0, x8
   827dc:	9400002f 	bl	82898 <_ZN5alloc5alloc8box_free17hde8f60f6f634249cE>
   827e0:	aa1303e0 	mov	x0, x19
   827e4:	94000543 	bl	83cf0 <_Unwind_Resume>
   827e8:	d4200020 	brk	#0x1
   827ec:	00000000 	.inst	0x00000000 ; undefined

00000000000827f0 <_ZN4core3ptr18real_drop_in_place17h557394cb1f98129bE>:
   827f0:	f9400401 	ldr	x1, [x0, #8]
   827f4:	b4000081 	cbz	x1, 82804 <_ZN4core3ptr18real_drop_in_place17h557394cb1f98129bE+0x14>
   827f8:	f9400000 	ldr	x0, [x0]
   827fc:	52800022 	mov	w2, #0x1                   	// #1
   82800:	17fffd5e 	b	81d78 <__rust_dealloc>
   82804:	d65f03c0 	ret

0000000000082808 <_ZN4core3ptr18real_drop_in_place17h582a8f905665fec7E.llvm.4076311326303757488>:
   82808:	f9400008 	ldr	x8, [x0]
   8280c:	c85f7d09 	ldxr	x9, [x8]
   82810:	f1000529 	subs	x9, x9, #0x1
   82814:	c80afd09 	stlxr	w10, x9, [x8]
   82818:	35ffffaa 	cbnz	w10, 8280c <_ZN4core3ptr18real_drop_in_place17h582a8f905665fec7E.llvm.4076311326303757488+0x4>
   8281c:	54000061 	b.ne	82828 <_ZN4core3ptr18real_drop_in_place17h582a8f905665fec7E.llvm.4076311326303757488+0x20>  // b.any
   82820:	d50339bf 	dmb	ishld
   82824:	14000401 	b	83828 <_ZN5alloc4sync12Arc$LT$T$GT$9drop_slow17hc8c599f344fe6447E>
   82828:	d65f03c0 	ret
   8282c:	00000000 	.inst	0x00000000 ; undefined

0000000000082830 <_ZN4core3ptr18real_drop_in_place17h742e1db7865957f5E>:
   82830:	f9400008 	ldr	x8, [x0]
   82834:	c85f7d09 	ldxr	x9, [x8]
   82838:	f1000529 	subs	x9, x9, #0x1
   8283c:	c80afd09 	stlxr	w10, x9, [x8]
   82840:	35ffffaa 	cbnz	w10, 82834 <_ZN4core3ptr18real_drop_in_place17h742e1db7865957f5E+0x4>
   82844:	54000061 	b.ne	82850 <_ZN4core3ptr18real_drop_in_place17h742e1db7865957f5E+0x20>  // b.any
   82848:	d50339bf 	dmb	ishld
   8284c:	14000427 	b	838e8 <_ZN5alloc4sync12Arc$LT$T$GT$9drop_slow17hcadfdbdeccafae32E>
   82850:	d65f03c0 	ret
   82854:	00000000 	.inst	0x00000000 ; undefined

0000000000082858 <_ZN4core3ptr18real_drop_in_place17hc0fd61e4a8d30c06E>:
   82858:	f9400008 	ldr	x8, [x0]
   8285c:	b4000108 	cbz	x8, 8287c <_ZN4core3ptr18real_drop_in_place17hc0fd61e4a8d30c06E+0x24>
   82860:	c85f7d09 	ldxr	x9, [x8]
   82864:	f1000529 	subs	x9, x9, #0x1
   82868:	c80afd09 	stlxr	w10, x9, [x8]
   8286c:	35ffffaa 	cbnz	w10, 82860 <_ZN4core3ptr18real_drop_in_place17hc0fd61e4a8d30c06E+0x8>
   82870:	54000061 	b.ne	8287c <_ZN4core3ptr18real_drop_in_place17hc0fd61e4a8d30c06E+0x24>  // b.any
   82874:	d50339bf 	dmb	ishld
   82878:	1400041c 	b	838e8 <_ZN5alloc4sync12Arc$LT$T$GT$9drop_slow17hcadfdbdeccafae32E>
   8287c:	d65f03c0 	ret

0000000000082880 <_ZN4core3ptr18real_drop_in_place17hf104a89dc54c57b1E>:
   82880:	f9400008 	ldr	x8, [x0]
   82884:	085ffd1f 	ldaxrb	wzr, [x8]
   82888:	0809fd1f 	stlxrb	w9, wzr, [x8]
   8288c:	35ffffc9 	cbnz	w9, 82884 <_ZN4core3ptr18real_drop_in_place17hf104a89dc54c57b1E+0x4>
   82890:	d65f03c0 	ret
   82894:	00000000 	.inst	0x00000000 ; undefined

0000000000082898 <_ZN5alloc5alloc8box_free17hde8f60f6f634249cE>:
   82898:	aa0103e8 	mov	x8, x1
   8289c:	f9400421 	ldr	x1, [x1, #8]
   828a0:	b4000061 	cbz	x1, 828ac <_ZN5alloc5alloc8box_free17hde8f60f6f634249cE+0x14>
   828a4:	f9400902 	ldr	x2, [x8, #16]
   828a8:	17fffd34 	b	81d78 <__rust_dealloc>
   828ac:	d65f03c0 	ret

00000000000828b0 <_ZN60_$LT$alloc..string..String$u20$as$u20$core..fmt..Display$GT$3fmt17he9b65cb3b2e3446eE>:
   828b0:	f9400008 	ldr	x8, [x0]
   828b4:	aa0103e2 	mov	x2, x1
   828b8:	f9400809 	ldr	x9, [x0, #16]
   828bc:	aa0803e0 	mov	x0, x8
   828c0:	aa0903e1 	mov	x1, x9
   828c4:	14001c63 	b	89a50 <_ZN42_$LT$str$u20$as$u20$core..fmt..Display$GT$3fmt17h5a9de3cd403484d2E>

00000000000828c8 <_ZN13ruspiro_brain5brain5Brain10initialize17h87757bc66cd88b5aE>:
   828c8:	d100c3ff 	sub	sp, sp, #0x30
   828cc:	f9000bf4 	str	x20, [sp, #16]
   828d0:	a9027bf3 	stp	x19, x30, [sp, #32]
   828d4:	aa0003f3 	mov	x19, x0
   828d8:	52800200 	mov	w0, #0x10                  	// #16
   828dc:	52800201 	mov	w1, #0x10                  	// #16
   828e0:	97fffd22 	bl	81d68 <__rust_alloc>
   828e4:	b4000620 	cbz	x0, 829a8 <_ZN13ruspiro_brain5brain5Brain10initialize17h87757bc66cd88b5aE+0xe0>
   828e8:	910003e8 	mov	x8, sp
   828ec:	aa0003f4 	mov	x20, x0
   828f0:	a9007c1f 	stp	xzr, xzr, [x0]
   828f4:	94001277 	bl	872d0 <_ZN12ruspiro_lock8spinlock8Spinlock3new17h0a3a855f75e3ab12E>
   828f8:	52800600 	mov	w0, #0x30                  	// #48
   828fc:	52800201 	mov	w1, #0x10                  	// #16
   82900:	97fffd1a 	bl	81d68 <__rust_alloc>
   82904:	b40005a0 	cbz	x0, 829b8 <_ZN13ruspiro_brain5brain5Brain10initialize17h87757bc66cd88b5aE+0xf0>
   82908:	52800028 	mov	w8, #0x1                   	// #1
   8290c:	3dc003e1 	ldr	q1, [sp]
   82910:	a9025014 	stp	x20, x20, [x0, #32]
   82914:	4e080d00 	dup	v0.2d, x8
   82918:	ad000400 	stp	q0, q1, [x0]
   8291c:	c85f7c08 	ldxr	x8, [x0]
   82920:	91000509 	add	x9, x8, #0x1
   82924:	c80a7c09 	stxr	w10, x9, [x0]
   82928:	35ffffaa 	cbnz	w10, 8291c <_ZN13ruspiro_brain5brain5Brain10initialize17h87757bc66cd88b5aE+0x54>
   8292c:	b7f804e8 	tbnz	x8, #63, 829c8 <_ZN13ruspiro_brain5brain5Brain10initialize17h87757bc66cd88b5aE+0x100>
   82930:	f9400268 	ldr	x8, [x19]
   82934:	f9000fe0 	str	x0, [sp, #24]
   82938:	f9000260 	str	x0, [x19]
   8293c:	f90003e8 	str	x8, [sp]
   82940:	b4000128 	cbz	x8, 82964 <_ZN13ruspiro_brain5brain5Brain10initialize17h87757bc66cd88b5aE+0x9c>
   82944:	c85f7d09 	ldxr	x9, [x8]
   82948:	f1000529 	subs	x9, x9, #0x1
   8294c:	c80afd09 	stlxr	w10, x9, [x8]
   82950:	35ffffaa 	cbnz	w10, 82944 <_ZN13ruspiro_brain5brain5Brain10initialize17h87757bc66cd88b5aE+0x7c>
   82954:	54000081 	b.ne	82964 <_ZN13ruspiro_brain5brain5Brain10initialize17h87757bc66cd88b5aE+0x9c>  // b.any
   82958:	d50339bf 	dmb	ishld
   8295c:	910003e0 	mov	x0, sp
   82960:	940003b2 	bl	83828 <_ZN5alloc4sync12Arc$LT$T$GT$9drop_slow17hc8c599f344fe6447E>
   82964:	f9400fe9 	ldr	x9, [sp, #24]
   82968:	f9400668 	ldr	x8, [x19, #8]
   8296c:	f9000669 	str	x9, [x19, #8]
   82970:	f90003e8 	str	x8, [sp]
   82974:	b4000128 	cbz	x8, 82998 <_ZN13ruspiro_brain5brain5Brain10initialize17h87757bc66cd88b5aE+0xd0>
   82978:	c85f7d09 	ldxr	x9, [x8]
   8297c:	f1000529 	subs	x9, x9, #0x1
   82980:	c80afd09 	stlxr	w10, x9, [x8]
   82984:	35ffffaa 	cbnz	w10, 82978 <_ZN13ruspiro_brain5brain5Brain10initialize17h87757bc66cd88b5aE+0xb0>
   82988:	54000081 	b.ne	82998 <_ZN13ruspiro_brain5brain5Brain10initialize17h87757bc66cd88b5aE+0xd0>  // b.any
   8298c:	910003e0 	mov	x0, sp
   82990:	d50339bf 	dmb	ishld
   82994:	940003a5 	bl	83828 <_ZN5alloc4sync12Arc$LT$T$GT$9drop_slow17hc8c599f344fe6447E>
   82998:	a9427bf3 	ldp	x19, x30, [sp, #32]
   8299c:	f9400bf4 	ldr	x20, [sp, #16]
   829a0:	9100c3ff 	add	sp, sp, #0x30
   829a4:	d65f03c0 	ret
   829a8:	52800200 	mov	w0, #0x10                  	// #16
   829ac:	52800201 	mov	w1, #0x10                  	// #16
   829b0:	94001294 	bl	87400 <_ZN5alloc5alloc18handle_alloc_error17h11286e57f71cf9c1E>
   829b4:	d4200020 	brk	#0x1
   829b8:	52800600 	mov	w0, #0x30                  	// #48
   829bc:	52800201 	mov	w1, #0x10                  	// #16
   829c0:	94001290 	bl	87400 <_ZN5alloc5alloc18handle_alloc_error17h11286e57f71cf9c1E>
   829c4:	d4200020 	brk	#0x1
   829c8:	d4200020 	brk	#0x1
   829cc:	d4200020 	brk	#0x1
   829d0:	aa0003f3 	mov	x19, x0
   829d4:	910063e0 	add	x0, sp, #0x18
   829d8:	97ffff8c 	bl	82808 <_ZN4core3ptr18real_drop_in_place17h582a8f905665fec7E.llvm.4076311326303757488>
   829dc:	aa1303e0 	mov	x0, x19
   829e0:	940004c4 	bl	83cf0 <_Unwind_Resume>
   829e4:	d4200020 	brk	#0x1

00000000000829e8 <_ZN13ruspiro_brain5brain5Brain5think17ha28041796c53f11fE>:
   829e8:	d104c3ff 	sub	sp, sp, #0x130
   829ec:	a90d6ffc 	stp	x28, x27, [sp, #208]
   829f0:	a90e67fa 	stp	x26, x25, [sp, #224]
   829f4:	a90f5ff8 	stp	x24, x23, [sp, #240]
   829f8:	a91057f6 	stp	x22, x21, [sp, #256]
   829fc:	a9114ff4 	stp	x20, x19, [sp, #272]
   82a00:	a9127bfd 	stp	x29, x30, [sp, #288]
   82a04:	f9400408 	ldr	x8, [x0, #8]
   82a08:	b4001208 	cbz	x8, 82c48 <_ZN13ruspiro_brain5brain5Brain5think17ha28041796c53f11fE+0x260>
   82a0c:	aa0003f3 	mov	x19, x0
   82a10:	91004100 	add	x0, x8, #0x10
   82a14:	94000307 	bl	83630 <_ZN13ruspiro_brain4mpmc5queue14Queue$LT$T$GT$3pop17hbdf4bed17113c0a0E>
   82a18:	f100041f 	cmp	x0, #0x1
   82a1c:	9a9f0028 	csel	x8, x1, xzr, eq  // eq = none
   82a20:	f90013e8 	str	x8, [sp, #32]
   82a24:	b4001128 	cbz	x8, 82c48 <_ZN13ruspiro_brain5brain5Brain5think17ha28041796c53f11fE+0x260>
   82a28:	f0000049 	adrp	x9, 8d000 <GCC_except_table3+0xa5c>
   82a2c:	9100c3e8 	add	x8, sp, #0x30
   82a30:	91264129 	add	x9, x9, #0x990
   82a34:	91004118 	add	x24, x8, #0x10
   82a38:	b0000008 	adrp	x8, 83000 <_ZN13ruspiro_brain8thoughts8wakeable17wake_wakeable_raw17hb0a6b7bc13fc6a19E+0x90>
   82a3c:	910243f6 	add	x22, sp, #0x90
   82a40:	91148108 	add	x8, x8, #0x520
   82a44:	910042d7 	add	x23, x22, #0x10
   82a48:	9e670120 	fmov	d0, x9
   82a4c:	5280003c 	mov	w28, #0x1                   	// #1
   82a50:	910183fd 	add	x29, sp, #0x60
   82a54:	4e181d00 	mov	v0.d[1], x8
   82a58:	3d8007e0 	str	q0, [sp, #16]
   82a5c:	14000008 	b	82a7c <_ZN13ruspiro_brain5brain5Brain5think17ha28041796c53f11fE+0x94>
   82a60:	f9400668 	ldr	x8, [x19, #8]
   82a64:	91004100 	add	x0, x8, #0x10
   82a68:	940002f2 	bl	83630 <_ZN13ruspiro_brain4mpmc5queue14Queue$LT$T$GT$3pop17hbdf4bed17113c0a0E>
   82a6c:	f100041f 	cmp	x0, #0x1
   82a70:	9a9f0028 	csel	x8, x1, xzr, eq  // eq = none
   82a74:	f90013e8 	str	x8, [sp, #32]
   82a78:	b4000e88 	cbz	x8, 82c48 <_ZN13ruspiro_brain5brain5Brain5think17ha28041796c53f11fE+0x260>
   82a7c:	90000069 	adrp	x9, 8e000 <_ZN4core3fmt3num14DEC_DIGITS_LUT17h46bba502bada2534E+0x1c0>
   82a80:	f90017e1 	str	x1, [sp, #40]
   82a84:	c8dffc28 	ldar	x8, [x1]
   82a88:	f9444929 	ldr	x9, [x9, #2192]
   82a8c:	f90067e8 	str	x8, [sp, #200]
   82a90:	f0000048 	adrp	x8, 8d000 <GCC_except_table3+0xa5c>
   82a94:	91268108 	add	x8, x8, #0x9a0
   82a98:	f90037e9 	str	x9, [sp, #104]
   82a9c:	910323e9 	add	x9, sp, #0xc8
   82aa0:	a90973e8 	stp	x8, x28, [sp, #144]
   82aa4:	f90033e9 	str	x9, [sp, #96]
   82aa8:	a9007eff 	stp	xzr, xzr, [x23]
   82aac:	a90b73fd 	stp	x29, x28, [sp, #176]
   82ab0:	9101e3e8 	add	x8, sp, #0x78
   82ab4:	910243e0 	add	x0, sp, #0x90
   82ab8:	9400125c 	bl	87428 <_ZN5alloc3fmt6format17hafdd08834ed4019dE>
   82abc:	a947a3e9 	ldp	x9, x8, [sp, #120]
   82ac0:	f94047ea 	ldr	x10, [sp, #136]
   82ac4:	3dc007e0 	ldr	q0, [sp, #16]
   82ac8:	a90623e9 	stp	x9, x8, [sp, #96]
   82acc:	90000008 	adrp	x8, 82000 <__rg_realloc+0x48>
   82ad0:	9122c108 	add	x8, x8, #0x8b0
   82ad4:	f9003bea 	str	x10, [sp, #112]
   82ad8:	3d8027e0 	str	q0, [sp, #144]
   82adc:	a90a23fd 	stp	x29, x8, [sp, #160]
   82ae0:	52800068 	mov	w8, #0x3                   	// #3
   82ae4:	f9001fe8 	str	x8, [sp, #56]
   82ae8:	f0000048 	adrp	x8, 8d000 <GCC_except_table3+0xa5c>
   82aec:	91258108 	add	x8, x8, #0x960
   82af0:	f9001be8 	str	x8, [sp, #48]
   82af4:	52800048 	mov	w8, #0x2                   	// #2
   82af8:	a9007f1f 	stp	xzr, xzr, [x24]
   82afc:	a90523f6 	stp	x22, x8, [sp, #80]
   82b00:	9101e3e8 	add	x8, sp, #0x78
   82b04:	9100c3e0 	add	x0, sp, #0x30
   82b08:	94001248 	bl	87428 <_ZN5alloc3fmt6format17hafdd08834ed4019dE>
   82b0c:	f94037e1 	ldr	x1, [sp, #104]
   82b10:	b4000081 	cbz	x1, 82b20 <_ZN13ruspiro_brain5brain5Brain5think17ha28041796c53f11fE+0x138>
   82b14:	f94033e0 	ldr	x0, [sp, #96]
   82b18:	52800022 	mov	w2, #0x1                   	// #1
   82b1c:	97fffc97 	bl	81d78 <__rust_dealloc>
   82b20:	a947a3f4 	ldp	x20, x8, [sp, #120]
   82b24:	f94047e1 	ldr	x1, [sp, #136]
   82b28:	a90923f4 	stp	x20, x8, [sp, #144]
   82b2c:	f90053e1 	str	x1, [sp, #160]
   82b30:	aa1403e0 	mov	x0, x20
   82b34:	940011d3 	bl	87280 <_ZN15ruspiro_console5print17h057cac26d371b76dE>
   82b38:	f9404fe1 	ldr	x1, [sp, #152]
   82b3c:	b4000081 	cbz	x1, 82b4c <_ZN13ruspiro_brain5brain5Brain5think17ha28041796c53f11fE+0x164>
   82b40:	aa1403e0 	mov	x0, x20
   82b44:	52800022 	mov	w2, #0x1                   	// #1
   82b48:	97fffc8c 	bl	81d78 <__rust_dealloc>
   82b4c:	f94017f9 	ldr	x25, [sp, #40]
   82b50:	9100433a 	add	x26, x25, #0x10
   82b54:	085fff48 	ldaxrb	w8, [x26]
   82b58:	0809ff5c 	stlxrb	w9, w28, [x26]
   82b5c:	7100013f 	cmp	w9, #0x0
   82b60:	7a400900 	ccmp	w8, #0x0, #0x0, eq  // eq = none
   82b64:	54ffff81 	b.ne	82b54 <_ZN13ruspiro_brain5brain5Brain5think17ha28041796c53f11fE+0x16c>  // b.any
   82b68:	aa1903fb 	mov	x27, x25
   82b6c:	f90033fa 	str	x26, [sp, #96]
   82b70:	f8418f74 	ldr	x20, [x27, #24]!
   82b74:	f9400775 	ldr	x21, [x27, #8]
   82b78:	a9007f7f 	stp	xzr, xzr, [x27]
   82b7c:	b40004d4 	cbz	x20, 82c14 <_ZN13ruspiro_brain5brain5Brain5think17ha28041796c53f11fE+0x22c>
   82b80:	a90357f4 	stp	x20, x21, [sp, #48]
   82b84:	910243e8 	add	x8, sp, #0x90
   82b88:	9100a3e0 	add	x0, sp, #0x28
   82b8c:	9400009b 	bl	82df8 <_ZN13ruspiro_brain8thoughts8wakeable23waker_ref_from_wakeable17hf70aa2fa0832a3acE>
   82b90:	f9400ea8 	ldr	x8, [x21, #24]
   82b94:	f9003ff6 	str	x22, [sp, #120]
   82b98:	9101e3e1 	add	x1, sp, #0x78
   82b9c:	aa1403e0 	mov	x0, x20
   82ba0:	d63f0100 	blr	x8
   82ba4:	36000060 	tbz	w0, #0, 82bb0 <_ZN13ruspiro_brain5brain5Brain5think17ha28041796c53f11fE+0x1c8>
   82ba8:	5280003b 	mov	w27, #0x1                   	// #1
   82bac:	1400000e 	b	82be4 <_ZN13ruspiro_brain5brain5Brain5think17ha28041796c53f11fE+0x1fc>
   82bb0:	f9400360 	ldr	x0, [x27]
   82bb4:	b4000140 	cbz	x0, 82bdc <_ZN13ruspiro_brain5brain5Brain5think17ha28041796c53f11fE+0x1f4>
   82bb8:	f9401328 	ldr	x8, [x25, #32]
   82bbc:	f9400108 	ldr	x8, [x8]
   82bc0:	d63f0100 	blr	x8
   82bc4:	f9401328 	ldr	x8, [x25, #32]
   82bc8:	f9400501 	ldr	x1, [x8, #8]
   82bcc:	b4000081 	cbz	x1, 82bdc <_ZN13ruspiro_brain5brain5Brain5think17ha28041796c53f11fE+0x1f4>
   82bd0:	f9400360 	ldr	x0, [x27]
   82bd4:	f9400902 	ldr	x2, [x8, #16]
   82bd8:	97fffc68 	bl	81d78 <__rust_dealloc>
   82bdc:	2a1f03fb 	mov	w27, wzr
   82be0:	a901d734 	stp	x20, x21, [x25, #24]
   82be4:	f9404be0 	ldr	x0, [sp, #144]
   82be8:	f9405be8 	ldr	x8, [sp, #176]
   82bec:	d63f0100 	blr	x8
   82bf0:	3400013b 	cbz	w27, 82c14 <_ZN13ruspiro_brain5brain5Brain5think17ha28041796c53f11fE+0x22c>
   82bf4:	f94002a8 	ldr	x8, [x21]
   82bf8:	aa1403e0 	mov	x0, x20
   82bfc:	d63f0100 	blr	x8
   82c00:	f94006a1 	ldr	x1, [x21, #8]
   82c04:	b4000081 	cbz	x1, 82c14 <_ZN13ruspiro_brain5brain5Brain5think17ha28041796c53f11fE+0x22c>
   82c08:	f9400aa2 	ldr	x2, [x21, #16]
   82c0c:	aa1403e0 	mov	x0, x20
   82c10:	97fffc5a 	bl	81d78 <__rust_dealloc>
   82c14:	085fff5f 	ldaxrb	wzr, [x26]
   82c18:	0808ff5f 	stlxrb	w8, wzr, [x26]
   82c1c:	35ffffc8 	cbnz	w8, 82c14 <_ZN13ruspiro_brain5brain5Brain5think17ha28041796c53f11fE+0x22c>
   82c20:	f94017e8 	ldr	x8, [sp, #40]
   82c24:	c85f7d09 	ldxr	x9, [x8]
   82c28:	f1000529 	subs	x9, x9, #0x1
   82c2c:	c80afd09 	stlxr	w10, x9, [x8]
   82c30:	35ffffaa 	cbnz	w10, 82c24 <_ZN13ruspiro_brain5brain5Brain5think17ha28041796c53f11fE+0x23c>
   82c34:	54fff161 	b.ne	82a60 <_ZN13ruspiro_brain5brain5Brain5think17ha28041796c53f11fE+0x78>  // b.any
   82c38:	d50339bf 	dmb	ishld
   82c3c:	9100a3e0 	add	x0, sp, #0x28
   82c40:	9400032a 	bl	838e8 <_ZN5alloc4sync12Arc$LT$T$GT$9drop_slow17hcadfdbdeccafae32E>
   82c44:	17ffff87 	b	82a60 <_ZN13ruspiro_brain5brain5Brain5think17ha28041796c53f11fE+0x78>
   82c48:	a9527bfd 	ldp	x29, x30, [sp, #288]
   82c4c:	a9514ff4 	ldp	x20, x19, [sp, #272]
   82c50:	a95057f6 	ldp	x22, x21, [sp, #256]
   82c54:	a94f5ff8 	ldp	x24, x23, [sp, #240]
   82c58:	a94e67fa 	ldp	x26, x25, [sp, #224]
   82c5c:	a94d6ffc 	ldp	x28, x27, [sp, #208]
   82c60:	9104c3ff 	add	sp, sp, #0x130
   82c64:	d65f03c0 	ret
   82c68:	a9418728 	ldp	x8, x1, [x25, #24]
   82c6c:	aa0003f3 	mov	x19, x0
   82c70:	aa0803e0 	mov	x0, x8
   82c74:	97ffff09 	bl	82898 <_ZN5alloc5alloc8box_free17hde8f60f6f634249cE>
   82c78:	910243e0 	add	x0, sp, #0x90
   82c7c:	a901d734 	stp	x20, x21, [x25, #24]
   82c80:	97fffec2 	bl	82788 <_ZN4core3ptr18real_drop_in_place17h404dabf49ca85fc0E>
   82c84:	14000014 	b	82cd4 <_ZN13ruspiro_brain5brain5Brain5think17ha28041796c53f11fE+0x2ec>
   82c88:	aa0003f3 	mov	x19, x0
   82c8c:	aa1403e0 	mov	x0, x20
   82c90:	aa1503e1 	mov	x1, x21
   82c94:	97ffff01 	bl	82898 <_ZN5alloc5alloc8box_free17hde8f60f6f634249cE>
   82c98:	1400000f 	b	82cd4 <_ZN13ruspiro_brain5brain5Brain5think17ha28041796c53f11fE+0x2ec>
   82c9c:	aa0003f3 	mov	x19, x0
   82ca0:	f94013e8 	ldr	x8, [sp, #32]
   82ca4:	b4000248 	cbz	x8, 82cec <_ZN13ruspiro_brain5brain5Brain5think17ha28041796c53f11fE+0x304>
   82ca8:	14000013 	b	82cf4 <_ZN13ruspiro_brain5brain5Brain5think17ha28041796c53f11fE+0x30c>
   82cac:	aa0003f3 	mov	x19, x0
   82cb0:	350000fb 	cbnz	w27, 82ccc <_ZN13ruspiro_brain5brain5Brain5think17ha28041796c53f11fE+0x2e4>
   82cb4:	14000008 	b	82cd4 <_ZN13ruspiro_brain5brain5Brain5think17ha28041796c53f11fE+0x2ec>
   82cb8:	aa0003f3 	mov	x19, x0
   82cbc:	910243e0 	add	x0, sp, #0x90
   82cc0:	97fffeb2 	bl	82788 <_ZN4core3ptr18real_drop_in_place17h404dabf49ca85fc0E>
   82cc4:	14000002 	b	82ccc <_ZN13ruspiro_brain5brain5Brain5think17ha28041796c53f11fE+0x2e4>
   82cc8:	aa0003f3 	mov	x19, x0
   82ccc:	9100c3e0 	add	x0, sp, #0x30
   82cd0:	97fffeb2 	bl	82798 <_ZN4core3ptr18real_drop_in_place17h4d1abc2134190149E>
   82cd4:	910183e0 	add	x0, sp, #0x60
   82cd8:	97fffeea 	bl	82880 <_ZN4core3ptr18real_drop_in_place17hf104a89dc54c57b1E>
   82cdc:	9100a3e0 	add	x0, sp, #0x28
   82ce0:	97fffed4 	bl	82830 <_ZN4core3ptr18real_drop_in_place17h742e1db7865957f5E>
   82ce4:	f94013e8 	ldr	x8, [sp, #32]
   82ce8:	b5000068 	cbnz	x8, 82cf4 <_ZN13ruspiro_brain5brain5Brain5think17ha28041796c53f11fE+0x30c>
   82cec:	910083e0 	add	x0, sp, #0x20
   82cf0:	97fffeda 	bl	82858 <_ZN4core3ptr18real_drop_in_place17hc0fd61e4a8d30c06E>
   82cf4:	aa1303e0 	mov	x0, x19
   82cf8:	940003fe 	bl	83cf0 <_Unwind_Resume>
   82cfc:	d4200020 	brk	#0x1
   82d00:	aa0003f3 	mov	x19, x0
   82d04:	910243e0 	add	x0, sp, #0x90
   82d08:	14000003 	b	82d14 <_ZN13ruspiro_brain5brain5Brain5think17ha28041796c53f11fE+0x32c>
   82d0c:	aa0003f3 	mov	x19, x0
   82d10:	910183e0 	add	x0, sp, #0x60
   82d14:	97fffeb7 	bl	827f0 <_ZN4core3ptr18real_drop_in_place17h557394cb1f98129bE>
   82d18:	9100a3e0 	add	x0, sp, #0x28
   82d1c:	97fffec5 	bl	82830 <_ZN4core3ptr18real_drop_in_place17h742e1db7865957f5E>
   82d20:	f94013e8 	ldr	x8, [sp, #32]
   82d24:	b4fffe48 	cbz	x8, 82cec <_ZN13ruspiro_brain5brain5Brain5think17ha28041796c53f11fE+0x304>
   82d28:	17fffff3 	b	82cf4 <_ZN13ruspiro_brain5brain5Brain5think17ha28041796c53f11fE+0x30c>
   82d2c:	aa0003f3 	mov	x19, x0
   82d30:	9100a3e0 	add	x0, sp, #0x28
   82d34:	97fffebf 	bl	82830 <_ZN4core3ptr18real_drop_in_place17h742e1db7865957f5E>
   82d38:	f94013e8 	ldr	x8, [sp, #32]
   82d3c:	b5fffdc8 	cbnz	x8, 82cf4 <_ZN13ruspiro_brain5brain5Brain5think17ha28041796c53f11fE+0x30c>
   82d40:	17ffffeb 	b	82cec <_ZN13ruspiro_brain5brain5Brain5think17ha28041796c53f11fE+0x304>
   82d44:	00000000 	.inst	0x00000000 ; undefined

0000000000082d48 <_ZN13ruspiro_brain8thoughts5waker5Waker4wake17h808a975f295c8579E>:
   82d48:	a9400408 	ldp	x8, x1, [x0]
   82d4c:	aa0803e0 	mov	x0, x8
   82d50:	d61f0020 	br	x1
   82d54:	00000000 	.inst	0x00000000 ; undefined

0000000000082d58 <_ZN76_$LT$ruspiro_brain..thoughts..waker..Waker$u20$as$u20$core..clone..Clone$GT$5clone17h606f4dbd22395a91E>:
   82d58:	d10103ff 	sub	sp, sp, #0x40
   82d5c:	a9037bf3 	stp	x19, x30, [sp, #48]
   82d60:	f9400c09 	ldr	x9, [x0, #24]
   82d64:	aa0803f3 	mov	x19, x8
   82d68:	f9400000 	ldr	x0, [x0]
   82d6c:	910023e8 	add	x8, sp, #0x8
   82d70:	d63f0120 	blr	x9
   82d74:	52800502 	mov	w2, #0x28                  	// #40
   82d78:	910023e1 	add	x1, sp, #0x8
   82d7c:	aa1303e0 	mov	x0, x19
   82d80:	94001c81 	bl	89f84 <memcpy>
   82d84:	a9437bf3 	ldp	x19, x30, [sp, #48]
   82d88:	910103ff 	add	sp, sp, #0x40
   82d8c:	d65f03c0 	ret

0000000000082d90 <_ZN79_$LT$ruspiro_brain..thoughts..waker..Waker$u20$as$u20$core..ops..drop..Drop$GT$4drop17h7df6c25be8e2a326E>:
   82d90:	f9400008 	ldr	x8, [x0]
   82d94:	f9401001 	ldr	x1, [x0, #32]
   82d98:	aa0803e0 	mov	x0, x8
   82d9c:	d61f0020 	br	x1

0000000000082da0 <_ZN4core3ptr18real_drop_in_place17h557394cb1f98129bE>:
   82da0:	f9400401 	ldr	x1, [x0, #8]
   82da4:	b4000081 	cbz	x1, 82db4 <_ZN4core3ptr18real_drop_in_place17h557394cb1f98129bE+0x14>
   82da8:	f9400000 	ldr	x0, [x0]
   82dac:	52800022 	mov	w2, #0x1                   	// #1
   82db0:	17fffbf2 	b	81d78 <__rust_dealloc>
   82db4:	d65f03c0 	ret

0000000000082db8 <_ZN4core3ptr18real_drop_in_place17h742e1db7865957f5E>:
   82db8:	f9400008 	ldr	x8, [x0]
   82dbc:	c85f7d09 	ldxr	x9, [x8]
   82dc0:	f1000529 	subs	x9, x9, #0x1
   82dc4:	c80afd09 	stlxr	w10, x9, [x8]
   82dc8:	35ffffaa 	cbnz	w10, 82dbc <_ZN4core3ptr18real_drop_in_place17h742e1db7865957f5E+0x4>
   82dcc:	54000061 	b.ne	82dd8 <_ZN4core3ptr18real_drop_in_place17h742e1db7865957f5E+0x20>  // b.any
   82dd0:	d50339bf 	dmb	ishld
   82dd4:	140002c5 	b	838e8 <_ZN5alloc4sync12Arc$LT$T$GT$9drop_slow17hcadfdbdeccafae32E>
   82dd8:	d65f03c0 	ret
   82ddc:	00000000 	.inst	0x00000000 ; undefined

0000000000082de0 <_ZN60_$LT$alloc..string..String$u20$as$u20$core..fmt..Display$GT$3fmt17he9b65cb3b2e3446eE>:
   82de0:	f9400008 	ldr	x8, [x0]
   82de4:	aa0103e2 	mov	x2, x1
   82de8:	f9400809 	ldr	x9, [x0, #16]
   82dec:	aa0803e0 	mov	x0, x8
   82df0:	aa0903e1 	mov	x1, x9
   82df4:	14001b17 	b	89a50 <_ZN42_$LT$str$u20$as$u20$core..fmt..Display$GT$3fmt17h5a9de3cd403484d2E>

0000000000082df8 <_ZN13ruspiro_brain8thoughts8wakeable23waker_ref_from_wakeable17hf70aa2fa0832a3acE>:
   82df8:	d10303ff 	sub	sp, sp, #0xc0
   82dfc:	a90a53f5 	stp	x21, x20, [sp, #160]
   82e00:	a90b7bf3 	stp	x19, x30, [sp, #176]
   82e04:	b0000009 	adrp	x9, 83000 <_ZN13ruspiro_brain8thoughts8wakeable17wake_wakeable_raw17hb0a6b7bc13fc6a19E+0x90>
   82e08:	aa0803f3 	mov	x19, x8
   82e0c:	910043e8 	add	x8, sp, #0x10
   82e10:	9114e129 	add	x9, x9, #0x538
   82e14:	f940000a 	ldr	x10, [x0]
   82e18:	9000004b 	adrp	x11, 8a000 <memmove>
   82e1c:	910ea16b 	add	x11, x11, #0x3a8
   82e20:	9100c3f4 	add	x20, sp, #0x30
   82e24:	a90327e8 	stp	x8, x9, [sp, #48]
   82e28:	f0000049 	adrp	x9, 8d000 <GCC_except_table3+0xa5c>
   82e2c:	52800028 	mov	w8, #0x1                   	// #1
   82e30:	9127c129 	add	x9, x9, #0x9f0
   82e34:	9101c3e0 	add	x0, sp, #0x70
   82e38:	910163f5 	add	x21, sp, #0x58
   82e3c:	a90723e9 	stp	x9, x8, [sp, #112]
   82e40:	91004149 	add	x9, x10, #0x10
   82e44:	a90823eb 	stp	x11, x8, [sp, #128]
   82e48:	a90923f4 	stp	x20, x8, [sp, #144]
   82e4c:	910163e8 	add	x8, sp, #0x58
   82e50:	f9000be9 	str	x9, [sp, #16]
   82e54:	94001175 	bl	87428 <_ZN5alloc3fmt6format17hafdd08834ed4019dE>
   82e58:	f0000048 	adrp	x8, 8d000 <GCC_except_table3+0xa5c>
   82e5c:	90000009 	adrp	x9, 82000 <__rg_realloc+0x48>
   82e60:	91278108 	add	x8, x8, #0x9e0
   82e64:	91378129 	add	x9, x9, #0xde0
   82e68:	f000004a 	adrp	x10, 8d000 <GCC_except_table3+0xa5c>
   82e6c:	a9087fff 	stp	xzr, xzr, [sp, #128]
   82e70:	9126c14a 	add	x10, x10, #0x9b0
   82e74:	9e670100 	fmov	d0, x8
   82e78:	b0000008 	adrp	x8, 83000 <_ZN13ruspiro_brain8thoughts8wakeable17wake_wakeable_raw17hb0a6b7bc13fc6a19E+0x90>
   82e7c:	91148108 	add	x8, x8, #0x520
   82e80:	a90427f5 	stp	x21, x9, [sp, #64]
   82e84:	52800049 	mov	w9, #0x2                   	// #2
   82e88:	a90927f4 	stp	x20, x9, [sp, #144]
   82e8c:	4e181d00 	mov	v0.d[1], x8
   82e90:	52800068 	mov	w8, #0x3                   	// #3
   82e94:	a90723ea 	stp	x10, x8, [sp, #112]
   82e98:	3d800fe0 	str	q0, [sp, #48]
   82e9c:	910063e8 	add	x8, sp, #0x18
   82ea0:	9101c3e0 	add	x0, sp, #0x70
   82ea4:	94001161 	bl	87428 <_ZN5alloc3fmt6format17hafdd08834ed4019dE>
   82ea8:	f94033e1 	ldr	x1, [sp, #96]
   82eac:	b4000081 	cbz	x1, 82ebc <_ZN13ruspiro_brain8thoughts8wakeable23waker_ref_from_wakeable17hf70aa2fa0832a3acE+0xc4>
   82eb0:	f9402fe0 	ldr	x0, [sp, #88]
   82eb4:	52800022 	mov	w2, #0x1                   	// #1
   82eb8:	97fffbb0 	bl	81d78 <__rust_dealloc>
   82ebc:	a941a3f4 	ldp	x20, x8, [sp, #24]
   82ec0:	f94017e1 	ldr	x1, [sp, #40]
   82ec4:	a90723f4 	stp	x20, x8, [sp, #112]
   82ec8:	f90043e1 	str	x1, [sp, #128]
   82ecc:	aa1403e0 	mov	x0, x20
   82ed0:	940010ec 	bl	87280 <_ZN15ruspiro_console5print17h057cac26d371b76dE>
   82ed4:	f9403fe1 	ldr	x1, [sp, #120]
   82ed8:	b4000081 	cbz	x1, 82ee8 <_ZN13ruspiro_brain8thoughts8wakeable23waker_ref_from_wakeable17hf70aa2fa0832a3acE+0xf0>
   82edc:	aa1403e0 	mov	x0, x20
   82ee0:	52800022 	mov	w2, #0x1                   	// #1
   82ee4:	97fffba5 	bl	81d78 <__rust_dealloc>
   82ee8:	90000008 	adrp	x8, 82000 <__rg_realloc+0x48>
   82eec:	b0000009 	adrp	x9, 83000 <_ZN13ruspiro_brain8thoughts8wakeable17wake_wakeable_raw17hb0a6b7bc13fc6a19E+0x90>
   82ef0:	913dc108 	add	x8, x8, #0xf70
   82ef4:	b000000a 	adrp	x10, 83000 <_ZN13ruspiro_brain8thoughts8wakeable17wake_wakeable_raw17hb0a6b7bc13fc6a19E+0x90>
   82ef8:	9108c129 	add	x9, x9, #0x230
   82efc:	9114614a 	add	x10, x10, #0x518
   82f00:	a94a53f5 	ldp	x21, x20, [sp, #160]
   82f04:	9e670100 	fmov	d0, x8
   82f08:	b0000008 	adrp	x8, 83000 <_ZN13ruspiro_brain8thoughts8wakeable17wake_wakeable_raw17hb0a6b7bc13fc6a19E+0x90>
   82f0c:	91038108 	add	x8, x8, #0xe0
   82f10:	4e181d00 	mov	v0.d[1], x8
   82f14:	f9400be8 	ldr	x8, [sp, #16]
   82f18:	f9000268 	str	x8, [x19]
   82f1c:	3d8003e0 	str	q0, [sp]
   82f20:	f94007e8 	ldr	x8, [sp, #8]
   82f24:	f9000a68 	str	x8, [x19, #16]
   82f28:	f94003e8 	ldr	x8, [sp]
   82f2c:	a901aa69 	stp	x9, x10, [x19, #24]
   82f30:	f9000668 	str	x8, [x19, #8]
   82f34:	a94b7bf3 	ldp	x19, x30, [sp, #176]
   82f38:	910303ff 	add	sp, sp, #0xc0
   82f3c:	d65f03c0 	ret
   82f40:	aa0003f3 	mov	x19, x0
   82f44:	9101c3e0 	add	x0, sp, #0x70
   82f48:	97ffff96 	bl	82da0 <_ZN4core3ptr18real_drop_in_place17h557394cb1f98129bE>
   82f4c:	aa1303e0 	mov	x0, x19
   82f50:	94000368 	bl	83cf0 <_Unwind_Resume>
   82f54:	d4200020 	brk	#0x1
   82f58:	aa0003f3 	mov	x19, x0
   82f5c:	910163e0 	add	x0, sp, #0x58
   82f60:	97ffff90 	bl	82da0 <_ZN4core3ptr18real_drop_in_place17h557394cb1f98129bE>
   82f64:	aa1303e0 	mov	x0, x19
   82f68:	94000362 	bl	83cf0 <_Unwind_Resume>
   82f6c:	d4200020 	brk	#0x1

0000000000082f70 <_ZN13ruspiro_brain8thoughts8wakeable17wake_wakeable_raw17hb0a6b7bc13fc6a19E>:
   82f70:	d102c3ff 	sub	sp, sp, #0xb0
   82f74:	a90903f4 	stp	x20, x0, [sp, #144]
   82f78:	a90a7bf3 	stp	x19, x30, [sp, #160]
   82f7c:	b0000009 	adrp	x9, 83000 <_ZN13ruspiro_brain8thoughts8wakeable17wake_wakeable_raw17hb0a6b7bc13fc6a19E+0x90>
   82f80:	910263e8 	add	x8, sp, #0x98
   82f84:	9114e129 	add	x9, x9, #0x538
   82f88:	5280002a 	mov	w10, #0x1                   	// #1
   82f8c:	910083f3 	add	x19, sp, #0x20
   82f90:	910183e0 	add	x0, sp, #0x60
   82f94:	910123f4 	add	x20, sp, #0x48
   82f98:	a90227e8 	stp	x8, x9, [sp, #32]
   82f9c:	f0000048 	adrp	x8, 8d000 <GCC_except_table3+0xa5c>
   82fa0:	91280108 	add	x8, x8, #0xa00
   82fa4:	a9082bf3 	stp	x19, x10, [sp, #128]
   82fa8:	a9062be8 	stp	x8, x10, [sp, #96]
   82fac:	90000048 	adrp	x8, 8a000 <memmove>
   82fb0:	910ea108 	add	x8, x8, #0x3a8
   82fb4:	a9072be8 	stp	x8, x10, [sp, #112]
   82fb8:	910123e8 	add	x8, sp, #0x48
   82fbc:	9400111b 	bl	87428 <_ZN5alloc3fmt6format17hafdd08834ed4019dE>
   82fc0:	f0000048 	adrp	x8, 8d000 <GCC_except_table3+0xa5c>
   82fc4:	90000009 	adrp	x9, 82000 <__rg_realloc+0x48>
   82fc8:	91278108 	add	x8, x8, #0x9e0
   82fcc:	91378129 	add	x9, x9, #0xde0
   82fd0:	f000004a 	adrp	x10, 8d000 <GCC_except_table3+0xa5c>
   82fd4:	a9077fff 	stp	xzr, xzr, [sp, #112]
   82fd8:	9126c14a 	add	x10, x10, #0x9b0
   82fdc:	9e670100 	fmov	d0, x8
   82fe0:	b0000008 	adrp	x8, 83000 <_ZN13ruspiro_brain8thoughts8wakeable17wake_wakeable_raw17hb0a6b7bc13fc6a19E+0x90>
   82fe4:	91148108 	add	x8, x8, #0x520
   82fe8:	a90327f4 	stp	x20, x9, [sp, #48]
   82fec:	52800049 	mov	w9, #0x2                   	// #2
   82ff0:	a90827f3 	stp	x19, x9, [sp, #128]
   82ff4:	4e181d00 	mov	v0.d[1], x8
   82ff8:	52800068 	mov	w8, #0x3                   	// #3
   82ffc:	a90623ea 	stp	x10, x8, [sp, #96]
   83000:	3d800be0 	str	q0, [sp, #32]
   83004:	910023e8 	add	x8, sp, #0x8
   83008:	910183e0 	add	x0, sp, #0x60
   8300c:	94001107 	bl	87428 <_ZN5alloc3fmt6format17hafdd08834ed4019dE>
   83010:	f9402be1 	ldr	x1, [sp, #80]
   83014:	b4000081 	cbz	x1, 83024 <_ZN13ruspiro_brain8thoughts8wakeable17wake_wakeable_raw17hb0a6b7bc13fc6a19E+0xb4>
   83018:	f94027e0 	ldr	x0, [sp, #72]
   8301c:	52800022 	mov	w2, #0x1                   	// #1
   83020:	97fffb56 	bl	81d78 <__rust_dealloc>
   83024:	a940a3f3 	ldp	x19, x8, [sp, #8]
   83028:	f9400fe1 	ldr	x1, [sp, #24]
   8302c:	a90623f3 	stp	x19, x8, [sp, #96]
   83030:	f9003be1 	str	x1, [sp, #112]
   83034:	aa1303e0 	mov	x0, x19
   83038:	94001092 	bl	87280 <_ZN15ruspiro_console5print17h057cac26d371b76dE>
   8303c:	f94037e1 	ldr	x1, [sp, #104]
   83040:	b4000081 	cbz	x1, 83050 <_ZN13ruspiro_brain8thoughts8wakeable17wake_wakeable_raw17hb0a6b7bc13fc6a19E+0xe0>
   83044:	aa1303e0 	mov	x0, x19
   83048:	52800022 	mov	w2, #0x1                   	// #1
   8304c:	97fffb4b 	bl	81d78 <__rust_dealloc>
   83050:	f9404fe8 	ldr	x8, [sp, #152]
   83054:	d1004108 	sub	x8, x8, #0x10
   83058:	f90033e8 	str	x8, [sp, #96]
   8305c:	910183e0 	add	x0, sp, #0x60
   83060:	9400027a 	bl	83a48 <_ZN105_$LT$ruspiro_brain..thoughts..thought..Thought$u20$as$u20$ruspiro_brain..thoughts..wakeable..WakeAble$GT$11wake_by_ref17h57bb8f386c84d128E>
   83064:	f94033e8 	ldr	x8, [sp, #96]
   83068:	c85f7d09 	ldxr	x9, [x8]
   8306c:	f1000529 	subs	x9, x9, #0x1
   83070:	c80afd09 	stlxr	w10, x9, [x8]
   83074:	35ffffaa 	cbnz	w10, 83068 <_ZN13ruspiro_brain8thoughts8wakeable17wake_wakeable_raw17hb0a6b7bc13fc6a19E+0xf8>
   83078:	54000081 	b.ne	83088 <_ZN13ruspiro_brain8thoughts8wakeable17wake_wakeable_raw17hb0a6b7bc13fc6a19E+0x118>  // b.any
   8307c:	910183e0 	add	x0, sp, #0x60
   83080:	d50339bf 	dmb	ishld
   83084:	94000219 	bl	838e8 <_ZN5alloc4sync12Arc$LT$T$GT$9drop_slow17hcadfdbdeccafae32E>
   83088:	a94a7bf3 	ldp	x19, x30, [sp, #160]
   8308c:	f9404bf4 	ldr	x20, [sp, #144]
   83090:	9102c3ff 	add	sp, sp, #0xb0
   83094:	d65f03c0 	ret
   83098:	aa0003f3 	mov	x19, x0
   8309c:	910183e0 	add	x0, sp, #0x60
   830a0:	9400024a 	bl	839c8 <_ZN4core3ptr18real_drop_in_place17h742e1db7865957f5E.llvm.13170691176973607575>
   830a4:	aa1303e0 	mov	x0, x19
   830a8:	94000312 	bl	83cf0 <_Unwind_Resume>
   830ac:	d4200020 	brk	#0x1
   830b0:	aa0003f3 	mov	x19, x0
   830b4:	910183e0 	add	x0, sp, #0x60
   830b8:	97ffff3a 	bl	82da0 <_ZN4core3ptr18real_drop_in_place17h557394cb1f98129bE>
   830bc:	aa1303e0 	mov	x0, x19
   830c0:	9400030c 	bl	83cf0 <_Unwind_Resume>
   830c4:	d4200020 	brk	#0x1
   830c8:	aa0003f3 	mov	x19, x0
   830cc:	910123e0 	add	x0, sp, #0x48
   830d0:	97ffff34 	bl	82da0 <_ZN4core3ptr18real_drop_in_place17h557394cb1f98129bE>
   830d4:	aa1303e0 	mov	x0, x19
   830d8:	94000306 	bl	83cf0 <_Unwind_Resume>
   830dc:	d4200020 	brk	#0x1

00000000000830e0 <_ZN13ruspiro_brain8thoughts8wakeable24wake_by_ref_wakeable_raw17h851d2c35406f4dffE>:
   830e0:	d102c3ff 	sub	sp, sp, #0xb0
   830e4:	a90903f4 	stp	x20, x0, [sp, #144]
   830e8:	a90a7bf3 	stp	x19, x30, [sp, #160]
   830ec:	90000009 	adrp	x9, 83000 <_ZN13ruspiro_brain8thoughts8wakeable17wake_wakeable_raw17hb0a6b7bc13fc6a19E+0x90>
   830f0:	910263e8 	add	x8, sp, #0x98
   830f4:	9114e129 	add	x9, x9, #0x538
   830f8:	5280002a 	mov	w10, #0x1                   	// #1
   830fc:	910083f3 	add	x19, sp, #0x20
   83100:	910183e0 	add	x0, sp, #0x60
   83104:	910123f4 	add	x20, sp, #0x48
   83108:	a90227e8 	stp	x8, x9, [sp, #32]
   8310c:	d0000048 	adrp	x8, 8d000 <GCC_except_table3+0xa5c>
   83110:	91284108 	add	x8, x8, #0xa10
   83114:	a9082bf3 	stp	x19, x10, [sp, #128]
   83118:	a9062be8 	stp	x8, x10, [sp, #96]
   8311c:	f0000028 	adrp	x8, 8a000 <memmove>
   83120:	910ea108 	add	x8, x8, #0x3a8
   83124:	a9072be8 	stp	x8, x10, [sp, #112]
   83128:	910123e8 	add	x8, sp, #0x48
   8312c:	940010bf 	bl	87428 <_ZN5alloc3fmt6format17hafdd08834ed4019dE>
   83130:	d0000048 	adrp	x8, 8d000 <GCC_except_table3+0xa5c>
   83134:	f0ffffe9 	adrp	x9, 82000 <__rg_realloc+0x48>
   83138:	91278108 	add	x8, x8, #0x9e0
   8313c:	91378129 	add	x9, x9, #0xde0
   83140:	d000004a 	adrp	x10, 8d000 <GCC_except_table3+0xa5c>
   83144:	a9077fff 	stp	xzr, xzr, [sp, #112]
   83148:	9126c14a 	add	x10, x10, #0x9b0
   8314c:	9e670100 	fmov	d0, x8
   83150:	90000008 	adrp	x8, 83000 <_ZN13ruspiro_brain8thoughts8wakeable17wake_wakeable_raw17hb0a6b7bc13fc6a19E+0x90>
   83154:	91148108 	add	x8, x8, #0x520
   83158:	a90327f4 	stp	x20, x9, [sp, #48]
   8315c:	52800049 	mov	w9, #0x2                   	// #2
   83160:	a90827f3 	stp	x19, x9, [sp, #128]
   83164:	4e181d00 	mov	v0.d[1], x8
   83168:	52800068 	mov	w8, #0x3                   	// #3
   8316c:	a90623ea 	stp	x10, x8, [sp, #96]
   83170:	3d800be0 	str	q0, [sp, #32]
   83174:	910023e8 	add	x8, sp, #0x8
   83178:	910183e0 	add	x0, sp, #0x60
   8317c:	940010ab 	bl	87428 <_ZN5alloc3fmt6format17hafdd08834ed4019dE>
   83180:	f9402be1 	ldr	x1, [sp, #80]
   83184:	b4000081 	cbz	x1, 83194 <_ZN13ruspiro_brain8thoughts8wakeable24wake_by_ref_wakeable_raw17h851d2c35406f4dffE+0xb4>
   83188:	f94027e0 	ldr	x0, [sp, #72]
   8318c:	52800022 	mov	w2, #0x1                   	// #1
   83190:	97fffafa 	bl	81d78 <__rust_dealloc>
   83194:	a940a3f3 	ldp	x19, x8, [sp, #8]
   83198:	f9400fe1 	ldr	x1, [sp, #24]
   8319c:	a90623f3 	stp	x19, x8, [sp, #96]
   831a0:	f9003be1 	str	x1, [sp, #112]
   831a4:	aa1303e0 	mov	x0, x19
   831a8:	94001036 	bl	87280 <_ZN15ruspiro_console5print17h057cac26d371b76dE>
   831ac:	f94037e1 	ldr	x1, [sp, #104]
   831b0:	b4000081 	cbz	x1, 831c0 <_ZN13ruspiro_brain8thoughts8wakeable24wake_by_ref_wakeable_raw17h851d2c35406f4dffE+0xe0>
   831b4:	aa1303e0 	mov	x0, x19
   831b8:	52800022 	mov	w2, #0x1                   	// #1
   831bc:	97fffaef 	bl	81d78 <__rust_dealloc>
   831c0:	f9404fe8 	ldr	x8, [sp, #152]
   831c4:	d1004108 	sub	x8, x8, #0x10
   831c8:	f90033e8 	str	x8, [sp, #96]
   831cc:	910183e0 	add	x0, sp, #0x60
   831d0:	9400021e 	bl	83a48 <_ZN105_$LT$ruspiro_brain..thoughts..thought..Thought$u20$as$u20$ruspiro_brain..thoughts..wakeable..WakeAble$GT$11wake_by_ref17h57bb8f386c84d128E>
   831d4:	a94a7bf3 	ldp	x19, x30, [sp, #160]
   831d8:	f9404bf4 	ldr	x20, [sp, #144]
   831dc:	9102c3ff 	add	sp, sp, #0xb0
   831e0:	d65f03c0 	ret
   831e4:	aa0003f3 	mov	x19, x0
   831e8:	910183e0 	add	x0, sp, #0x60
   831ec:	97fffef3 	bl	82db8 <_ZN4core3ptr18real_drop_in_place17h742e1db7865957f5E>
   831f0:	aa1303e0 	mov	x0, x19
   831f4:	940002bf 	bl	83cf0 <_Unwind_Resume>
   831f8:	d4200020 	brk	#0x1
   831fc:	aa0003f3 	mov	x19, x0
   83200:	910183e0 	add	x0, sp, #0x60
   83204:	97fffee7 	bl	82da0 <_ZN4core3ptr18real_drop_in_place17h557394cb1f98129bE>
   83208:	aa1303e0 	mov	x0, x19
   8320c:	940002b9 	bl	83cf0 <_Unwind_Resume>
   83210:	d4200020 	brk	#0x1
   83214:	aa0003f3 	mov	x19, x0
   83218:	910123e0 	add	x0, sp, #0x48
   8321c:	97fffee1 	bl	82da0 <_ZN4core3ptr18real_drop_in_place17h557394cb1f98129bE>
   83220:	aa1303e0 	mov	x0, x19
   83224:	940002b3 	bl	83cf0 <_Unwind_Resume>
   83228:	d4200020 	brk	#0x1
   8322c:	00000000 	.inst	0x00000000 ; undefined

0000000000083230 <_ZN13ruspiro_brain8thoughts8wakeable18clone_wakeable_raw17h7ac58330b94a9e97E>:
   83230:	d10303ff 	sub	sp, sp, #0xc0
   83234:	a90a53f5 	stp	x21, x20, [sp, #160]
   83238:	a90b7bf3 	stp	x19, x30, [sp, #176]
   8323c:	90000009 	adrp	x9, 83000 <_ZN13ruspiro_brain8thoughts8wakeable17wake_wakeable_raw17hb0a6b7bc13fc6a19E+0x90>
   83240:	aa0803f3 	mov	x19, x8
   83244:	910043e8 	add	x8, sp, #0x10
   83248:	9114e129 	add	x9, x9, #0x538
   8324c:	5280002a 	mov	w10, #0x1                   	// #1
   83250:	f9000be0 	str	x0, [sp, #16]
   83254:	9100c3f4 	add	x20, sp, #0x30
   83258:	9101c3e0 	add	x0, sp, #0x70
   8325c:	a90327e8 	stp	x8, x9, [sp, #48]
   83260:	d0000048 	adrp	x8, 8d000 <GCC_except_table3+0xa5c>
   83264:	91288108 	add	x8, x8, #0xa20
   83268:	910163f5 	add	x21, sp, #0x58
   8326c:	a9092bf4 	stp	x20, x10, [sp, #144]
   83270:	a9072be8 	stp	x8, x10, [sp, #112]
   83274:	f0000028 	adrp	x8, 8a000 <memmove>
   83278:	910ea108 	add	x8, x8, #0x3a8
   8327c:	a9082be8 	stp	x8, x10, [sp, #128]
   83280:	910163e8 	add	x8, sp, #0x58
   83284:	94001069 	bl	87428 <_ZN5alloc3fmt6format17hafdd08834ed4019dE>
   83288:	d0000048 	adrp	x8, 8d000 <GCC_except_table3+0xa5c>
   8328c:	f0ffffe9 	adrp	x9, 82000 <__rg_realloc+0x48>
   83290:	91278108 	add	x8, x8, #0x9e0
   83294:	91378129 	add	x9, x9, #0xde0
   83298:	d000004a 	adrp	x10, 8d000 <GCC_except_table3+0xa5c>
   8329c:	a9087fff 	stp	xzr, xzr, [sp, #128]
   832a0:	9126c14a 	add	x10, x10, #0x9b0
   832a4:	9e670100 	fmov	d0, x8
   832a8:	90000008 	adrp	x8, 83000 <_ZN13ruspiro_brain8thoughts8wakeable17wake_wakeable_raw17hb0a6b7bc13fc6a19E+0x90>
   832ac:	91148108 	add	x8, x8, #0x520
   832b0:	a90427f5 	stp	x21, x9, [sp, #64]
   832b4:	52800049 	mov	w9, #0x2                   	// #2
   832b8:	a90927f4 	stp	x20, x9, [sp, #144]
   832bc:	4e181d00 	mov	v0.d[1], x8
   832c0:	52800068 	mov	w8, #0x3                   	// #3
   832c4:	a90723ea 	stp	x10, x8, [sp, #112]
   832c8:	3d800fe0 	str	q0, [sp, #48]
   832cc:	910063e8 	add	x8, sp, #0x18
   832d0:	9101c3e0 	add	x0, sp, #0x70
   832d4:	94001055 	bl	87428 <_ZN5alloc3fmt6format17hafdd08834ed4019dE>
   832d8:	f94033e1 	ldr	x1, [sp, #96]
   832dc:	b4000081 	cbz	x1, 832ec <_ZN13ruspiro_brain8thoughts8wakeable18clone_wakeable_raw17h7ac58330b94a9e97E+0xbc>
   832e0:	f9402fe0 	ldr	x0, [sp, #88]
   832e4:	52800022 	mov	w2, #0x1                   	// #1
   832e8:	97fffaa4 	bl	81d78 <__rust_dealloc>
   832ec:	a941a3f4 	ldp	x20, x8, [sp, #24]
   832f0:	f94017e1 	ldr	x1, [sp, #40]
   832f4:	a90723f4 	stp	x20, x8, [sp, #112]
   832f8:	f90043e1 	str	x1, [sp, #128]
   832fc:	aa1403e0 	mov	x0, x20
   83300:	94000fe0 	bl	87280 <_ZN15ruspiro_console5print17h057cac26d371b76dE>
   83304:	f9403fe1 	ldr	x1, [sp, #120]
   83308:	b4000081 	cbz	x1, 83318 <_ZN13ruspiro_brain8thoughts8wakeable18clone_wakeable_raw17h7ac58330b94a9e97E+0xe8>
   8330c:	aa1403e0 	mov	x0, x20
   83310:	52800022 	mov	w2, #0x1                   	// #1
   83314:	97fffa99 	bl	81d78 <__rust_dealloc>
   83318:	f9400be8 	ldr	x8, [sp, #16]
   8331c:	d1004108 	sub	x8, x8, #0x10
   83320:	c85f7d09 	ldxr	x9, [x8]
   83324:	9100052a 	add	x10, x9, #0x1
   83328:	c80b7d0a 	stxr	w11, x10, [x8]
   8332c:	35ffffab 	cbnz	w11, 83320 <_ZN13ruspiro_brain8thoughts8wakeable18clone_wakeable_raw17h7ac58330b94a9e97E+0xf0>
   83330:	b7f802e9 	tbnz	x9, #63, 8338c <_ZN13ruspiro_brain8thoughts8wakeable18clone_wakeable_raw17h7ac58330b94a9e97E+0x15c>
   83334:	f0ffffe8 	adrp	x8, 82000 <__rg_realloc+0x48>
   83338:	90000009 	adrp	x9, 83000 <_ZN13ruspiro_brain8thoughts8wakeable17wake_wakeable_raw17hb0a6b7bc13fc6a19E+0x90>
   8333c:	913dc108 	add	x8, x8, #0xf70
   83340:	9000000a 	adrp	x10, 83000 <_ZN13ruspiro_brain8thoughts8wakeable17wake_wakeable_raw17hb0a6b7bc13fc6a19E+0x90>
   83344:	9108c129 	add	x9, x9, #0x230
   83348:	910f214a 	add	x10, x10, #0x3c8
   8334c:	a94a53f5 	ldp	x21, x20, [sp, #160]
   83350:	9e670100 	fmov	d0, x8
   83354:	90000008 	adrp	x8, 83000 <_ZN13ruspiro_brain8thoughts8wakeable17wake_wakeable_raw17hb0a6b7bc13fc6a19E+0x90>
   83358:	91038108 	add	x8, x8, #0xe0
   8335c:	4e181d00 	mov	v0.d[1], x8
   83360:	f9400be8 	ldr	x8, [sp, #16]
   83364:	f9000268 	str	x8, [x19]
   83368:	3d8003e0 	str	q0, [sp]
   8336c:	f94007e8 	ldr	x8, [sp, #8]
   83370:	f9000a68 	str	x8, [x19, #16]
   83374:	f94003e8 	ldr	x8, [sp]
   83378:	a901aa69 	stp	x9, x10, [x19, #24]
   8337c:	f9000668 	str	x8, [x19, #8]
   83380:	a94b7bf3 	ldp	x19, x30, [sp, #176]
   83384:	910303ff 	add	sp, sp, #0xc0
   83388:	d65f03c0 	ret
   8338c:	d4200020 	brk	#0x1
   83390:	d4200020 	brk	#0x1
   83394:	aa0003f3 	mov	x19, x0
   83398:	9101c3e0 	add	x0, sp, #0x70
   8339c:	97fffe81 	bl	82da0 <_ZN4core3ptr18real_drop_in_place17h557394cb1f98129bE>
   833a0:	aa1303e0 	mov	x0, x19
   833a4:	94000253 	bl	83cf0 <_Unwind_Resume>
   833a8:	d4200020 	brk	#0x1
   833ac:	aa0003f3 	mov	x19, x0
   833b0:	910163e0 	add	x0, sp, #0x58
   833b4:	97fffe7b 	bl	82da0 <_ZN4core3ptr18real_drop_in_place17h557394cb1f98129bE>
   833b8:	aa1303e0 	mov	x0, x19
   833bc:	9400024d 	bl	83cf0 <_Unwind_Resume>
   833c0:	d4200020 	brk	#0x1
   833c4:	00000000 	.inst	0x00000000 ; undefined

00000000000833c8 <_ZN13ruspiro_brain8thoughts8wakeable17drop_wakeable_raw17hd40dfd41d5abc4d3E>:
   833c8:	d102c3ff 	sub	sp, sp, #0xb0
   833cc:	a90903f4 	stp	x20, x0, [sp, #144]
   833d0:	a90a7bf3 	stp	x19, x30, [sp, #160]
   833d4:	90000009 	adrp	x9, 83000 <_ZN13ruspiro_brain8thoughts8wakeable17wake_wakeable_raw17hb0a6b7bc13fc6a19E+0x90>
   833d8:	910263e8 	add	x8, sp, #0x98
   833dc:	9114e129 	add	x9, x9, #0x538
   833e0:	5280002a 	mov	w10, #0x1                   	// #1
   833e4:	910083f3 	add	x19, sp, #0x20
   833e8:	910183e0 	add	x0, sp, #0x60
   833ec:	910123f4 	add	x20, sp, #0x48
   833f0:	a90227e8 	stp	x8, x9, [sp, #32]
   833f4:	d0000048 	adrp	x8, 8d000 <GCC_except_table3+0xa5c>
   833f8:	9128c108 	add	x8, x8, #0xa30
   833fc:	a9082bf3 	stp	x19, x10, [sp, #128]
   83400:	a9062be8 	stp	x8, x10, [sp, #96]
   83404:	f0000028 	adrp	x8, 8a000 <memmove>
   83408:	9110a108 	add	x8, x8, #0x428
   8340c:	a9072be8 	stp	x8, x10, [sp, #112]
   83410:	910123e8 	add	x8, sp, #0x48
   83414:	94001005 	bl	87428 <_ZN5alloc3fmt6format17hafdd08834ed4019dE>
   83418:	d0000048 	adrp	x8, 8d000 <GCC_except_table3+0xa5c>
   8341c:	f0ffffe9 	adrp	x9, 82000 <__rg_realloc+0x48>
   83420:	91278108 	add	x8, x8, #0x9e0
   83424:	91378129 	add	x9, x9, #0xde0
   83428:	d000004a 	adrp	x10, 8d000 <GCC_except_table3+0xa5c>
   8342c:	a9077fff 	stp	xzr, xzr, [sp, #112]
   83430:	9126c14a 	add	x10, x10, #0x9b0
   83434:	9e670100 	fmov	d0, x8
   83438:	90000008 	adrp	x8, 83000 <_ZN13ruspiro_brain8thoughts8wakeable17wake_wakeable_raw17hb0a6b7bc13fc6a19E+0x90>
   8343c:	91148108 	add	x8, x8, #0x520
   83440:	a90327f4 	stp	x20, x9, [sp, #48]
   83444:	52800049 	mov	w9, #0x2                   	// #2
   83448:	a90827f3 	stp	x19, x9, [sp, #128]
   8344c:	4e181d00 	mov	v0.d[1], x8
   83450:	52800068 	mov	w8, #0x3                   	// #3
   83454:	a90623ea 	stp	x10, x8, [sp, #96]
   83458:	3d800be0 	str	q0, [sp, #32]
   8345c:	910023e8 	add	x8, sp, #0x8
   83460:	910183e0 	add	x0, sp, #0x60
   83464:	94000ff1 	bl	87428 <_ZN5alloc3fmt6format17hafdd08834ed4019dE>
   83468:	f9402be1 	ldr	x1, [sp, #80]
   8346c:	b4000081 	cbz	x1, 8347c <_ZN13ruspiro_brain8thoughts8wakeable17drop_wakeable_raw17hd40dfd41d5abc4d3E+0xb4>
   83470:	f94027e0 	ldr	x0, [sp, #72]
   83474:	52800022 	mov	w2, #0x1                   	// #1
   83478:	97fffa40 	bl	81d78 <__rust_dealloc>
   8347c:	a940a3f3 	ldp	x19, x8, [sp, #8]
   83480:	f9400fe1 	ldr	x1, [sp, #24]
   83484:	a90623f3 	stp	x19, x8, [sp, #96]
   83488:	f9003be1 	str	x1, [sp, #112]
   8348c:	aa1303e0 	mov	x0, x19
   83490:	94000f7c 	bl	87280 <_ZN15ruspiro_console5print17h057cac26d371b76dE>
   83494:	f94037e1 	ldr	x1, [sp, #104]
   83498:	b4000081 	cbz	x1, 834a8 <_ZN13ruspiro_brain8thoughts8wakeable17drop_wakeable_raw17hd40dfd41d5abc4d3E+0xe0>
   8349c:	aa1303e0 	mov	x0, x19
   834a0:	52800022 	mov	w2, #0x1                   	// #1
   834a4:	97fffa35 	bl	81d78 <__rust_dealloc>
   834a8:	f9404fe8 	ldr	x8, [sp, #152]
   834ac:	d1004108 	sub	x8, x8, #0x10
   834b0:	f90033e8 	str	x8, [sp, #96]
   834b4:	c85f7d09 	ldxr	x9, [x8]
   834b8:	f1000529 	subs	x9, x9, #0x1
   834bc:	c80afd09 	stlxr	w10, x9, [x8]
   834c0:	35ffffaa 	cbnz	w10, 834b4 <_ZN13ruspiro_brain8thoughts8wakeable17drop_wakeable_raw17hd40dfd41d5abc4d3E+0xec>
   834c4:	54000081 	b.ne	834d4 <_ZN13ruspiro_brain8thoughts8wakeable17drop_wakeable_raw17hd40dfd41d5abc4d3E+0x10c>  // b.any
   834c8:	910183e0 	add	x0, sp, #0x60
   834cc:	d50339bf 	dmb	ishld
   834d0:	94000106 	bl	838e8 <_ZN5alloc4sync12Arc$LT$T$GT$9drop_slow17hcadfdbdeccafae32E>
   834d4:	a94a7bf3 	ldp	x19, x30, [sp, #160]
   834d8:	f9404bf4 	ldr	x20, [sp, #144]
   834dc:	9102c3ff 	add	sp, sp, #0xb0
   834e0:	d65f03c0 	ret
   834e4:	aa0003f3 	mov	x19, x0
   834e8:	910183e0 	add	x0, sp, #0x60
   834ec:	97fffe2d 	bl	82da0 <_ZN4core3ptr18real_drop_in_place17h557394cb1f98129bE>
   834f0:	aa1303e0 	mov	x0, x19
   834f4:	940001ff 	bl	83cf0 <_Unwind_Resume>
   834f8:	d4200020 	brk	#0x1
   834fc:	aa0003f3 	mov	x19, x0
   83500:	910123e0 	add	x0, sp, #0x48
   83504:	97fffe27 	bl	82da0 <_ZN4core3ptr18real_drop_in_place17h557394cb1f98129bE>
   83508:	aa1303e0 	mov	x0, x19
   8350c:	940001f9 	bl	83cf0 <_Unwind_Resume>
   83510:	d4200020 	brk	#0x1
   83514:	00000000 	.inst	0x00000000 ; undefined

0000000000083518 <_ZN13ruspiro_brain8thoughts8wakeable4noop17h18973509f973cd6cE>:
   83518:	d65f03c0 	ret
   8351c:	00000000 	.inst	0x00000000 ; undefined

0000000000083520 <_ZN44_$LT$$RF$T$u20$as$u20$core..fmt..Display$GT$3fmt17h86013de608609ab5E>:
   83520:	a9402408 	ldp	x8, x9, [x0]
   83524:	aa0103e2 	mov	x2, x1
   83528:	aa0803e0 	mov	x0, x8
   8352c:	aa0903e1 	mov	x1, x9
   83530:	14001948 	b	89a50 <_ZN42_$LT$str$u20$as$u20$core..fmt..Display$GT$3fmt17h5a9de3cd403484d2E>
   83534:	00000000 	.inst	0x00000000 ; undefined

0000000000083538 <_ZN52_$LT$$BP$const$u20$T$u20$as$u20$core..fmt..Debug$GT$3fmt17ha5e08877160dc6b8E>:
   83538:	d10143ff 	sub	sp, sp, #0x50
   8353c:	a9025bf7 	stp	x23, x22, [sp, #32]
   83540:	a90353f5 	stp	x21, x20, [sp, #48]
   83544:	a9047bf3 	stp	x19, x30, [sp, #64]
   83548:	a9405835 	ldp	x21, x22, [x1]
   8354c:	aa0003f4 	mov	x20, x0
   83550:	aa0103e0 	mov	x0, x1
   83554:	b9405037 	ldr	w23, [x1, #80]
   83558:	aa0103f3 	mov	x19, x1
   8355c:	940017e0 	bl	894dc <_ZN4core3fmt9Formatter9alternate17h55b61d4eb6831511E>
   83560:	b9405268 	ldr	w8, [x19, #80]
   83564:	340001a0 	cbz	w0, 83598 <_ZN52_$LT$$BP$const$u20$T$u20$as$u20$core..fmt..Debug$GT$3fmt17ha5e08877160dc6b8E+0x60>
   83568:	f9400269 	ldr	x9, [x19]
   8356c:	321d0108 	orr	w8, w8, #0x8
   83570:	b9005268 	str	w8, [x19, #80]
   83574:	f100053f 	cmp	x9, #0x1
   83578:	54000100 	b.eq	83598 <_ZN52_$LT$$BP$const$u20$T$u20$as$u20$core..fmt..Debug$GT$3fmt17ha5e08877160dc6b8E+0x60>  // b.none
   8357c:	f0000029 	adrp	x9, 8a000 <memmove>
   83580:	3dc11d20 	ldr	q0, [x9, #1136]
   83584:	3d8003e0 	str	q0, [sp]
   83588:	f94007e9 	ldr	x9, [sp, #8]
   8358c:	f9000669 	str	x9, [x19, #8]
   83590:	f94003e9 	ldr	x9, [sp]
   83594:	f9000269 	str	x9, [x19]
   83598:	f9400289 	ldr	x9, [x20]
   8359c:	321e0108 	orr	w8, w8, #0x4
   835a0:	910063e0 	add	x0, sp, #0x18
   835a4:	aa1303e1 	mov	x1, x19
   835a8:	b9005268 	str	w8, [x19, #80]
   835ac:	f9000fe9 	str	x9, [sp, #24]
   835b0:	940010f8 	bl	87990 <_ZN4core3fmt3num53_$LT$impl$u20$core..fmt..LowerHex$u20$for$u20$i64$GT$3fmt17h9d17b57bf7f81c93E>
   835b4:	a9005a75 	stp	x21, x22, [x19]
   835b8:	b9005277 	str	w23, [x19, #80]
   835bc:	a9447bf3 	ldp	x19, x30, [sp, #64]
   835c0:	a94353f5 	ldp	x21, x20, [sp, #48]
   835c4:	a9425bf7 	ldp	x23, x22, [sp, #32]
   835c8:	910143ff 	add	sp, sp, #0x50
   835cc:	d65f03c0 	ret

00000000000835d0 <_ZN4core3ptr18real_drop_in_place17h742e1db7865957f5E>:
   835d0:	f9400008 	ldr	x8, [x0]
   835d4:	c85f7d09 	ldxr	x9, [x8]
   835d8:	f1000529 	subs	x9, x9, #0x1
   835dc:	c80afd09 	stlxr	w10, x9, [x8]
   835e0:	35ffffaa 	cbnz	w10, 835d4 <_ZN4core3ptr18real_drop_in_place17h742e1db7865957f5E+0x4>
   835e4:	54000061 	b.ne	835f0 <_ZN4core3ptr18real_drop_in_place17h742e1db7865957f5E+0x20>  // b.any
   835e8:	d50339bf 	dmb	ishld
   835ec:	140000bf 	b	838e8 <_ZN5alloc4sync12Arc$LT$T$GT$9drop_slow17hcadfdbdeccafae32E>
   835f0:	d65f03c0 	ret
   835f4:	00000000 	.inst	0x00000000 ; undefined

00000000000835f8 <_ZN4core3ptr18real_drop_in_place17hf680be72e4b8c490E>:
   835f8:	f9400008 	ldr	x8, [x0]
   835fc:	b4000108 	cbz	x8, 8361c <_ZN4core3ptr18real_drop_in_place17hf680be72e4b8c490E+0x24>
   83600:	c85f7d09 	ldxr	x9, [x8]
   83604:	f1000529 	subs	x9, x9, #0x1
   83608:	c80afd09 	stlxr	w10, x9, [x8]
   8360c:	35ffffaa 	cbnz	w10, 83600 <_ZN4core3ptr18real_drop_in_place17hf680be72e4b8c490E+0x8>
   83610:	54000061 	b.ne	8361c <_ZN4core3ptr18real_drop_in_place17hf680be72e4b8c490E+0x24>  // b.any
   83614:	d50339bf 	dmb	ishld
   83618:	140000b4 	b	838e8 <_ZN5alloc4sync12Arc$LT$T$GT$9drop_slow17hcadfdbdeccafae32E>
   8361c:	d65f03c0 	ret

0000000000083620 <_ZN5alloc5alloc8box_free17h1d587d659861a7c5E.llvm.17294116360248276485>:
   83620:	52800201 	mov	w1, #0x10                  	// #16
   83624:	52800202 	mov	w2, #0x10                  	// #16
   83628:	17fff9d4 	b	81d78 <__rust_dealloc>
   8362c:	00000000 	.inst	0x00000000 ; undefined

0000000000083630 <_ZN13ruspiro_brain4mpmc5queue14Queue$LT$T$GT$3pop17hbdf4bed17113c0a0E>:
   83630:	d100c3ff 	sub	sp, sp, #0x30
   83634:	a90153f5 	stp	x21, x20, [sp, #16]
   83638:	a9027bf3 	stp	x19, x30, [sp, #32]
   8363c:	aa0003f5 	mov	x21, x0
   83640:	52800200 	mov	w0, #0x10                  	// #16
   83644:	52800201 	mov	w1, #0x10                  	// #16
   83648:	97fff9c8 	bl	81d68 <__rust_alloc>
   8364c:	b4000940 	cbz	x0, 83774 <_ZN13ruspiro_brain4mpmc5queue14Queue$LT$T$GT$3pop17hbdf4bed17113c0a0E+0x144>
   83650:	aa0003f4 	mov	x20, x0
   83654:	910042a8 	add	x8, x21, #0x10
   83658:	a9007c1f 	stp	xzr, xzr, [x0]
   8365c:	c85ffd13 	ldaxr	x19, [x8]
   83660:	c809fd14 	stlxr	w9, x20, [x8]
   83664:	35ffffc9 	cbnz	w9, 8365c <_ZN13ruspiro_brain4mpmc5queue14Queue$LT$T$GT$3pop17hbdf4bed17113c0a0E+0x2c>
   83668:	f9400269 	ldr	x9, [x19]
   8366c:	b4000529 	cbz	x9, 83710 <_ZN13ruspiro_brain4mpmc5queue14Queue$LT$T$GT$3pop17hbdf4bed17113c0a0E+0xe0>
   83670:	c89ffd09 	stlr	x9, [x8]
   83674:	f9400528 	ldr	x8, [x9, #8]
   83678:	f900053f 	str	xzr, [x9, #8]
   8367c:	f90007e8 	str	x8, [sp, #8]
   83680:	b4000828 	cbz	x8, 83784 <_ZN13ruspiro_brain4mpmc5queue14Queue$LT$T$GT$3pop17hbdf4bed17113c0a0E+0x154>
   83684:	aa1303e0 	mov	x0, x19
   83688:	f90007e8 	str	x8, [sp, #8]
   8368c:	f8408c08 	ldr	x8, [x0, #8]!
   83690:	b4000108 	cbz	x8, 836b0 <_ZN13ruspiro_brain4mpmc5queue14Queue$LT$T$GT$3pop17hbdf4bed17113c0a0E+0x80>
   83694:	c85f7d09 	ldxr	x9, [x8]
   83698:	f1000529 	subs	x9, x9, #0x1
   8369c:	c80afd09 	stlxr	w10, x9, [x8]
   836a0:	35ffffaa 	cbnz	w10, 83694 <_ZN13ruspiro_brain4mpmc5queue14Queue$LT$T$GT$3pop17hbdf4bed17113c0a0E+0x64>
   836a4:	54000061 	b.ne	836b0 <_ZN13ruspiro_brain4mpmc5queue14Queue$LT$T$GT$3pop17hbdf4bed17113c0a0E+0x80>  // b.any
   836a8:	d50339bf 	dmb	ishld
   836ac:	9400008f 	bl	838e8 <_ZN5alloc4sync12Arc$LT$T$GT$9drop_slow17hcadfdbdeccafae32E>
   836b0:	aa1303e0 	mov	x0, x19
   836b4:	52800201 	mov	w1, #0x10                  	// #16
   836b8:	52800202 	mov	w2, #0x10                  	// #16
   836bc:	97fff9af 	bl	81d78 <__rust_dealloc>
   836c0:	aa1403e0 	mov	x0, x20
   836c4:	f8408c08 	ldr	x8, [x0, #8]!
   836c8:	b4000108 	cbz	x8, 836e8 <_ZN13ruspiro_brain4mpmc5queue14Queue$LT$T$GT$3pop17hbdf4bed17113c0a0E+0xb8>
   836cc:	c85f7d09 	ldxr	x9, [x8]
   836d0:	f1000529 	subs	x9, x9, #0x1
   836d4:	c80afd09 	stlxr	w10, x9, [x8]
   836d8:	35ffffaa 	cbnz	w10, 836cc <_ZN13ruspiro_brain4mpmc5queue14Queue$LT$T$GT$3pop17hbdf4bed17113c0a0E+0x9c>
   836dc:	54000061 	b.ne	836e8 <_ZN13ruspiro_brain4mpmc5queue14Queue$LT$T$GT$3pop17hbdf4bed17113c0a0E+0xb8>  // b.any
   836e0:	d50339bf 	dmb	ishld
   836e4:	94000081 	bl	838e8 <_ZN5alloc4sync12Arc$LT$T$GT$9drop_slow17hcadfdbdeccafae32E>
   836e8:	aa1403e0 	mov	x0, x20
   836ec:	52800201 	mov	w1, #0x10                  	// #16
   836f0:	52800202 	mov	w2, #0x10                  	// #16
   836f4:	97fff9a1 	bl	81d78 <__rust_dealloc>
   836f8:	f94007e1 	ldr	x1, [sp, #8]
   836fc:	52800020 	mov	w0, #0x1                   	// #1
   83700:	a9427bf3 	ldp	x19, x30, [sp, #32]
   83704:	a94153f5 	ldp	x21, x20, [sp, #16]
   83708:	9100c3ff 	add	sp, sp, #0x30
   8370c:	d65f03c0 	ret
   83710:	c85ffd14 	ldaxr	x20, [x8]
   83714:	c809fd13 	stlxr	w9, x19, [x8]
   83718:	35ffffc9 	cbnz	w9, 83710 <_ZN13ruspiro_brain4mpmc5queue14Queue$LT$T$GT$3pop17hbdf4bed17113c0a0E+0xe0>
   8371c:	aa1403e0 	mov	x0, x20
   83720:	f8408c08 	ldr	x8, [x0, #8]!
   83724:	b4000108 	cbz	x8, 83744 <_ZN13ruspiro_brain4mpmc5queue14Queue$LT$T$GT$3pop17hbdf4bed17113c0a0E+0x114>
   83728:	c85f7d09 	ldxr	x9, [x8]
   8372c:	f1000529 	subs	x9, x9, #0x1
   83730:	c80afd09 	stlxr	w10, x9, [x8]
   83734:	35ffffaa 	cbnz	w10, 83728 <_ZN13ruspiro_brain4mpmc5queue14Queue$LT$T$GT$3pop17hbdf4bed17113c0a0E+0xf8>
   83738:	54000061 	b.ne	83744 <_ZN13ruspiro_brain4mpmc5queue14Queue$LT$T$GT$3pop17hbdf4bed17113c0a0E+0x114>  // b.any
   8373c:	d50339bf 	dmb	ishld
   83740:	9400006a 	bl	838e8 <_ZN5alloc4sync12Arc$LT$T$GT$9drop_slow17hcadfdbdeccafae32E>
   83744:	aa1403e0 	mov	x0, x20
   83748:	52800201 	mov	w1, #0x10                  	// #16
   8374c:	52800202 	mov	w2, #0x10                  	// #16
   83750:	97fff98a 	bl	81d78 <__rust_dealloc>
   83754:	f9400ea8 	ldr	x8, [x21, #24]
   83758:	eb13011f 	cmp	x8, x19
   8375c:	1a9f07e8 	cset	w8, ne  // ne = any
   83760:	d37ff900 	lsl	x0, x8, #1
   83764:	a9427bf3 	ldp	x19, x30, [sp, #32]
   83768:	a94153f5 	ldp	x21, x20, [sp, #16]
   8376c:	9100c3ff 	add	sp, sp, #0x30
   83770:	d65f03c0 	ret
   83774:	52800200 	mov	w0, #0x10                  	// #16
   83778:	52800201 	mov	w1, #0x10                  	// #16
   8377c:	94000f21 	bl	87400 <_ZN5alloc5alloc18handle_alloc_error17h11286e57f71cf9c1E>
   83780:	d4200020 	brk	#0x1
   83784:	f0000020 	adrp	x0, 8a000 <memmove>
   83788:	d0000042 	adrp	x2, 8d000 <GCC_except_table3+0xa5c>
   8378c:	9113c000 	add	x0, x0, #0x4f0
   83790:	52800561 	mov	w1, #0x2b                  	// #43
   83794:	91290042 	add	x2, x2, #0xa40
   83798:	94001988 	bl	89db8 <_ZN4core9panicking5panic17h9428e358a2a56b0bE>
   8379c:	d4200020 	brk	#0x1
   837a0:	aa0003f5 	mov	x21, x0
   837a4:	910023e0 	add	x0, sp, #0x8
   837a8:	97ffff94 	bl	835f8 <_ZN4core3ptr18real_drop_in_place17hf680be72e4b8c490E>
   837ac:	aa1503e0 	mov	x0, x21
   837b0:	94000150 	bl	83cf0 <_Unwind_Resume>
   837b4:	d4200020 	brk	#0x1
   837b8:	aa0003f5 	mov	x21, x0
   837bc:	aa1403e0 	mov	x0, x20
   837c0:	97ffff98 	bl	83620 <_ZN5alloc5alloc8box_free17h1d587d659861a7c5E.llvm.17294116360248276485>
   837c4:	aa1503e0 	mov	x0, x21
   837c8:	9400014a 	bl	83cf0 <_Unwind_Resume>
   837cc:	d4200020 	brk	#0x1
   837d0:	aa0003f5 	mov	x21, x0
   837d4:	aa1403f3 	mov	x19, x20
   837d8:	14000002 	b	837e0 <_ZN13ruspiro_brain4mpmc5queue14Queue$LT$T$GT$3pop17hbdf4bed17113c0a0E+0x1b0>
   837dc:	aa0003f5 	mov	x21, x0
   837e0:	aa1303e0 	mov	x0, x19
   837e4:	97ffff8f 	bl	83620 <_ZN5alloc5alloc8box_free17h1d587d659861a7c5E.llvm.17294116360248276485>
   837e8:	910023e0 	add	x0, sp, #0x8
   837ec:	97ffff79 	bl	835d0 <_ZN4core3ptr18real_drop_in_place17h742e1db7865957f5E>
   837f0:	aa1503e0 	mov	x0, x21
   837f4:	9400013f 	bl	83cf0 <_Unwind_Resume>
   837f8:	d4200020 	brk	#0x1
   837fc:	00000000 	.inst	0x00000000 ; undefined

0000000000083800 <_ZN4core3ptr18real_drop_in_place17hc8a142c2c137f620E>:
   83800:	f9400008 	ldr	x8, [x0]
   83804:	c85f7d09 	ldxr	x9, [x8]
   83808:	f1000529 	subs	x9, x9, #0x1
   8380c:	c80afd09 	stlxr	w10, x9, [x8]
   83810:	35ffffaa 	cbnz	w10, 83804 <_ZN4core3ptr18real_drop_in_place17hc8a142c2c137f620E+0x4>
   83814:	54000061 	b.ne	83820 <_ZN4core3ptr18real_drop_in_place17hc8a142c2c137f620E+0x20>  // b.any
   83818:	d50339bf 	dmb	ishld
   8381c:	14000003 	b	83828 <_ZN5alloc4sync12Arc$LT$T$GT$9drop_slow17hc8c599f344fe6447E>
   83820:	d65f03c0 	ret
   83824:	00000000 	.inst	0x00000000 ; undefined

0000000000083828 <_ZN5alloc4sync12Arc$LT$T$GT$9drop_slow17hc8c599f344fe6447E>:
   83828:	a9be53f5 	stp	x21, x20, [sp, #-32]!
   8382c:	a9017bf3 	stp	x19, x30, [sp, #16]
   83830:	f9400008 	ldr	x8, [x0]
   83834:	aa0003f3 	mov	x19, x0
   83838:	f9401115 	ldr	x21, [x8, #32]
   8383c:	b50000f5 	cbnz	x21, 83858 <_ZN5alloc4sync12Arc$LT$T$GT$9drop_slow17hc8c599f344fe6447E+0x30>
   83840:	14000014 	b	83890 <_ZN5alloc4sync12Arc$LT$T$GT$9drop_slow17hc8c599f344fe6447E+0x68>
   83844:	aa1403e0 	mov	x0, x20
   83848:	52800201 	mov	w1, #0x10                  	// #16
   8384c:	52800202 	mov	w2, #0x10                  	// #16
   83850:	97fff94a 	bl	81d78 <__rust_dealloc>
   83854:	b40001d5 	cbz	x21, 8388c <_ZN5alloc4sync12Arc$LT$T$GT$9drop_slow17hc8c599f344fe6447E+0x64>
   83858:	aa1503f4 	mov	x20, x21
   8385c:	f94002b5 	ldr	x21, [x21]
   83860:	aa1403e0 	mov	x0, x20
   83864:	f8408c08 	ldr	x8, [x0, #8]!
   83868:	b4fffee8 	cbz	x8, 83844 <_ZN5alloc4sync12Arc$LT$T$GT$9drop_slow17hc8c599f344fe6447E+0x1c>
   8386c:	c85f7d09 	ldxr	x9, [x8]
   83870:	f1000529 	subs	x9, x9, #0x1
   83874:	c80afd09 	stlxr	w10, x9, [x8]
   83878:	35ffffaa 	cbnz	w10, 8386c <_ZN5alloc4sync12Arc$LT$T$GT$9drop_slow17hc8c599f344fe6447E+0x44>
   8387c:	54fffe41 	b.ne	83844 <_ZN5alloc4sync12Arc$LT$T$GT$9drop_slow17hc8c599f344fe6447E+0x1c>  // b.any
   83880:	d50339bf 	dmb	ishld
   83884:	94000019 	bl	838e8 <_ZN5alloc4sync12Arc$LT$T$GT$9drop_slow17hcadfdbdeccafae32E>
   83888:	17ffffef 	b	83844 <_ZN5alloc4sync12Arc$LT$T$GT$9drop_slow17hc8c599f344fe6447E+0x1c>
   8388c:	f9400268 	ldr	x8, [x19]
   83890:	91002108 	add	x8, x8, #0x8
   83894:	c85f7d09 	ldxr	x9, [x8]
   83898:	f1000529 	subs	x9, x9, #0x1
   8389c:	c80afd09 	stlxr	w10, x9, [x8]
   838a0:	35ffffaa 	cbnz	w10, 83894 <_ZN5alloc4sync12Arc$LT$T$GT$9drop_slow17hc8c599f344fe6447E+0x6c>
   838a4:	54000101 	b.ne	838c4 <_ZN5alloc4sync12Arc$LT$T$GT$9drop_slow17hc8c599f344fe6447E+0x9c>  // b.any
   838a8:	d50339bf 	dmb	ishld
   838ac:	52800601 	mov	w1, #0x30                  	// #48
   838b0:	f9400260 	ldr	x0, [x19]
   838b4:	52800202 	mov	w2, #0x10                  	// #16
   838b8:	a9417bf3 	ldp	x19, x30, [sp, #16]
   838bc:	a8c253f5 	ldp	x21, x20, [sp], #32
   838c0:	17fff92e 	b	81d78 <__rust_dealloc>
   838c4:	a9417bf3 	ldp	x19, x30, [sp, #16]
   838c8:	a8c253f5 	ldp	x21, x20, [sp], #32
   838cc:	d65f03c0 	ret
   838d0:	aa0003f3 	mov	x19, x0
   838d4:	aa1403e0 	mov	x0, x20
   838d8:	97ffff52 	bl	83620 <_ZN5alloc5alloc8box_free17h1d587d659861a7c5E.llvm.17294116360248276485>
   838dc:	aa1303e0 	mov	x0, x19
   838e0:	94000104 	bl	83cf0 <_Unwind_Resume>
   838e4:	d4200020 	brk	#0x1

00000000000838e8 <_ZN5alloc4sync12Arc$LT$T$GT$9drop_slow17hcadfdbdeccafae32E>:
   838e8:	f81e0ff4 	str	x20, [sp, #-32]!
   838ec:	a9017bf3 	stp	x19, x30, [sp, #16]
   838f0:	f9400014 	ldr	x20, [x0]
   838f4:	aa0003f3 	mov	x19, x0
   838f8:	f9400e80 	ldr	x0, [x20, #24]
   838fc:	b4000140 	cbz	x0, 83924 <_ZN5alloc4sync12Arc$LT$T$GT$9drop_slow17hcadfdbdeccafae32E+0x3c>
   83900:	f9401288 	ldr	x8, [x20, #32]
   83904:	f9400108 	ldr	x8, [x8]
   83908:	d63f0100 	blr	x8
   8390c:	f9401288 	ldr	x8, [x20, #32]
   83910:	f9400501 	ldr	x1, [x8, #8]
   83914:	b4000081 	cbz	x1, 83924 <_ZN5alloc4sync12Arc$LT$T$GT$9drop_slow17hcadfdbdeccafae32E+0x3c>
   83918:	f9400e80 	ldr	x0, [x20, #24]
   8391c:	f9400902 	ldr	x2, [x8, #16]
   83920:	97fff916 	bl	81d78 <__rust_dealloc>
   83924:	f8430e88 	ldr	x8, [x20, #48]!
   83928:	c85f7d09 	ldxr	x9, [x8]
   8392c:	f1000529 	subs	x9, x9, #0x1
   83930:	c80afd09 	stlxr	w10, x9, [x8]
   83934:	35ffffaa 	cbnz	w10, 83928 <_ZN5alloc4sync12Arc$LT$T$GT$9drop_slow17hcadfdbdeccafae32E+0x40>
   83938:	54000081 	b.ne	83948 <_ZN5alloc4sync12Arc$LT$T$GT$9drop_slow17hcadfdbdeccafae32E+0x60>  // b.any
   8393c:	aa1403e0 	mov	x0, x20
   83940:	d50339bf 	dmb	ishld
   83944:	97ffffb9 	bl	83828 <_ZN5alloc4sync12Arc$LT$T$GT$9drop_slow17hc8c599f344fe6447E>
   83948:	f9400268 	ldr	x8, [x19]
   8394c:	91002108 	add	x8, x8, #0x8
   83950:	c85f7d09 	ldxr	x9, [x8]
   83954:	f1000529 	subs	x9, x9, #0x1
   83958:	c80afd09 	stlxr	w10, x9, [x8]
   8395c:	35ffffaa 	cbnz	w10, 83950 <_ZN5alloc4sync12Arc$LT$T$GT$9drop_slow17hcadfdbdeccafae32E+0x68>
   83960:	54000101 	b.ne	83980 <_ZN5alloc4sync12Arc$LT$T$GT$9drop_slow17hcadfdbdeccafae32E+0x98>  // b.any
   83964:	d50339bf 	dmb	ishld
   83968:	52800801 	mov	w1, #0x40                  	// #64
   8396c:	f9400260 	ldr	x0, [x19]
   83970:	52800202 	mov	w2, #0x10                  	// #16
   83974:	a9417bf3 	ldp	x19, x30, [sp, #16]
   83978:	f84207f4 	ldr	x20, [sp], #32
   8397c:	17fff8ff 	b	81d78 <__rust_dealloc>
   83980:	a9417bf3 	ldp	x19, x30, [sp, #16]
   83984:	f84207f4 	ldr	x20, [sp], #32
   83988:	d65f03c0 	ret
   8398c:	a9418688 	ldp	x8, x1, [x20, #24]
   83990:	aa0003f3 	mov	x19, x0
   83994:	aa0803e0 	mov	x0, x8
   83998:	94000006 	bl	839b0 <_ZN5alloc5alloc8box_free17hde8f60f6f634249cE>
   8399c:	9100c280 	add	x0, x20, #0x30
   839a0:	97ffff98 	bl	83800 <_ZN4core3ptr18real_drop_in_place17hc8a142c2c137f620E>
   839a4:	aa1303e0 	mov	x0, x19
   839a8:	940000d2 	bl	83cf0 <_Unwind_Resume>
   839ac:	d4200020 	brk	#0x1

00000000000839b0 <_ZN5alloc5alloc8box_free17hde8f60f6f634249cE>:
   839b0:	aa0103e8 	mov	x8, x1
   839b4:	f9400421 	ldr	x1, [x1, #8]
   839b8:	b4000061 	cbz	x1, 839c4 <_ZN5alloc5alloc8box_free17hde8f60f6f634249cE+0x14>
   839bc:	f9400902 	ldr	x2, [x8, #16]
   839c0:	17fff8ee 	b	81d78 <__rust_dealloc>
   839c4:	d65f03c0 	ret

00000000000839c8 <_ZN4core3ptr18real_drop_in_place17h742e1db7865957f5E.llvm.13170691176973607575>:
   839c8:	f9400008 	ldr	x8, [x0]
   839cc:	c85f7d09 	ldxr	x9, [x8]
   839d0:	f1000529 	subs	x9, x9, #0x1
   839d4:	c80afd09 	stlxr	w10, x9, [x8]
   839d8:	35ffffaa 	cbnz	w10, 839cc <_ZN4core3ptr18real_drop_in_place17h742e1db7865957f5E.llvm.13170691176973607575+0x4>
   839dc:	54000061 	b.ne	839e8 <_ZN4core3ptr18real_drop_in_place17h742e1db7865957f5E.llvm.13170691176973607575+0x20>  // b.any
   839e0:	d50339bf 	dmb	ishld
   839e4:	17ffffc1 	b	838e8 <_ZN5alloc4sync12Arc$LT$T$GT$9drop_slow17hcadfdbdeccafae32E>
   839e8:	d65f03c0 	ret
   839ec:	00000000 	.inst	0x00000000 ; undefined

00000000000839f0 <_ZN4core3ptr18real_drop_in_place17h557394cb1f98129bE>:
   839f0:	f9400401 	ldr	x1, [x0, #8]
   839f4:	b4000081 	cbz	x1, 83a04 <_ZN4core3ptr18real_drop_in_place17h557394cb1f98129bE+0x14>
   839f8:	f9400000 	ldr	x0, [x0]
   839fc:	52800022 	mov	w2, #0x1                   	// #1
   83a00:	17fff8de 	b	81d78 <__rust_dealloc>
   83a04:	d65f03c0 	ret

0000000000083a08 <_ZN4core3ptr18real_drop_in_place17h742e1db7865957f5E>:
   83a08:	f9400008 	ldr	x8, [x0]
   83a0c:	c85f7d09 	ldxr	x9, [x8]
   83a10:	f1000529 	subs	x9, x9, #0x1
   83a14:	c80afd09 	stlxr	w10, x9, [x8]
   83a18:	35ffffaa 	cbnz	w10, 83a0c <_ZN4core3ptr18real_drop_in_place17h742e1db7865957f5E+0x4>
   83a1c:	54000061 	b.ne	83a28 <_ZN4core3ptr18real_drop_in_place17h742e1db7865957f5E+0x20>  // b.any
   83a20:	d50339bf 	dmb	ishld
   83a24:	17ffffb1 	b	838e8 <_ZN5alloc4sync12Arc$LT$T$GT$9drop_slow17hcadfdbdeccafae32E>
   83a28:	d65f03c0 	ret
   83a2c:	00000000 	.inst	0x00000000 ; undefined

0000000000083a30 <_ZN60_$LT$alloc..string..String$u20$as$u20$core..fmt..Display$GT$3fmt17he9b65cb3b2e3446eE>:
   83a30:	f9400008 	ldr	x8, [x0]
   83a34:	aa0103e2 	mov	x2, x1
   83a38:	f9400809 	ldr	x9, [x0, #16]
   83a3c:	aa0803e0 	mov	x0, x8
   83a40:	aa0903e1 	mov	x1, x9
   83a44:	14001803 	b	89a50 <_ZN42_$LT$str$u20$as$u20$core..fmt..Display$GT$3fmt17h5a9de3cd403484d2E>

0000000000083a48 <_ZN105_$LT$ruspiro_brain..thoughts..thought..Thought$u20$as$u20$ruspiro_brain..thoughts..wakeable..WakeAble$GT$11wake_by_ref17h57bb8f386c84d128E>:
   83a48:	d10343ff 	sub	sp, sp, #0xd0
   83a4c:	f9004bf8 	str	x24, [sp, #144]
   83a50:	a90a5bf7 	stp	x23, x22, [sp, #160]
   83a54:	a90b53f5 	stp	x21, x20, [sp, #176]
   83a58:	a90c7bf3 	stp	x19, x30, [sp, #192]
   83a5c:	f9400008 	ldr	x8, [x0]
   83a60:	aa0003f3 	mov	x19, x0
   83a64:	c85f7d09 	ldxr	x9, [x8]
   83a68:	9100052a 	add	x10, x9, #0x1
   83a6c:	c80b7d0a 	stxr	w11, x10, [x8]
   83a70:	35ffffab 	cbnz	w11, 83a64 <_ZN105_$LT$ruspiro_brain..thoughts..thought..Thought$u20$as$u20$ruspiro_brain..thoughts..wakeable..WakeAble$GT$11wake_by_ref17h57bb8f386c84d128E+0x1c>
   83a74:	b7f80f69 	tbnz	x9, #63, 83c60 <_ZN105_$LT$ruspiro_brain..thoughts..thought..Thought$u20$as$u20$ruspiro_brain..thoughts..wakeable..WakeAble$GT$11wake_by_ref17h57bb8f386c84d128E+0x218>
   83a78:	f0000049 	adrp	x9, 8e000 <_ZN4core3fmt3num14DEC_DIGITS_LUT17h46bba502bada2534E+0x1c0>
   83a7c:	910023ea 	add	x10, sp, #0x8
   83a80:	910123f7 	add	x23, sp, #0x48
   83a84:	f9444929 	ldr	x9, [x9, #2192]
   83a88:	f9004fe8 	str	x8, [sp, #152]
   83a8c:	c8dffd08 	ldar	x8, [x8]
   83a90:	a9077fff 	stp	xzr, xzr, [sp, #112]
   83a94:	a904a7ea 	stp	x10, x9, [sp, #72]
   83a98:	52800049 	mov	w9, #0x2                   	// #2
   83a9c:	f90007e8 	str	x8, [sp, #8]
   83aa0:	d0000048 	adrp	x8, 8d000 <GCC_except_table3+0xa5c>
   83aa4:	912a6108 	add	x8, x8, #0xa98
   83aa8:	a90627e8 	stp	x8, x9, [sp, #96]
   83aac:	52800028 	mov	w8, #0x1                   	// #1
   83ab0:	a90823f7 	stp	x23, x8, [sp, #128]
   83ab4:	910083e8 	add	x8, sp, #0x20
   83ab8:	910183e0 	add	x0, sp, #0x60
   83abc:	910083f4 	add	x20, sp, #0x20
   83ac0:	94000e5a 	bl	87428 <_ZN5alloc3fmt6format17hafdd08834ed4019dE>
   83ac4:	d0000056 	adrp	x22, 8d000 <GCC_except_table3+0xa5c>
   83ac8:	90000015 	adrp	x21, 83000 <_ZN13ruspiro_brain8thoughts8wakeable17wake_wakeable_raw17hb0a6b7bc13fc6a19E+0x90>
   83acc:	912a22d6 	add	x22, x22, #0xa88
   83ad0:	911482b5 	add	x21, x21, #0x520
   83ad4:	a94227e8 	ldp	x8, x9, [sp, #32]
   83ad8:	90000018 	adrp	x24, 83000 <_ZN13ruspiro_brain8thoughts8wakeable17wake_wakeable_raw17hb0a6b7bc13fc6a19E+0x90>
   83adc:	9e6702c0 	fmov	d0, x22
   83ae0:	9128c318 	add	x24, x24, #0xa30
   83ae4:	f9401bea 	ldr	x10, [sp, #48]
   83ae8:	a904a7e8 	stp	x8, x9, [sp, #72]
   83aec:	52800068 	mov	w8, #0x3                   	// #3
   83af0:	a90363f7 	stp	x23, x24, [sp, #48]
   83af4:	d0000057 	adrp	x23, 8d000 <GCC_except_table3+0xa5c>
   83af8:	912962f7 	add	x23, x23, #0xa58
   83afc:	a907d3ff 	stp	xzr, x20, [sp, #120]
   83b00:	a906ffe8 	stp	x8, xzr, [sp, #104]
   83b04:	52800048 	mov	w8, #0x2                   	// #2
   83b08:	4e181ea0 	mov	v0.d[1], x21
   83b0c:	a905dfea 	stp	x10, x23, [sp, #88]
   83b10:	f90047e8 	str	x8, [sp, #136]
   83b14:	3d800be0 	str	q0, [sp, #32]
   83b18:	910023e8 	add	x8, sp, #0x8
   83b1c:	910183e0 	add	x0, sp, #0x60
   83b20:	94000e42 	bl	87428 <_ZN5alloc3fmt6format17hafdd08834ed4019dE>
   83b24:	f9402be1 	ldr	x1, [sp, #80]
   83b28:	b4000081 	cbz	x1, 83b38 <_ZN105_$LT$ruspiro_brain..thoughts..thought..Thought$u20$as$u20$ruspiro_brain..thoughts..wakeable..WakeAble$GT$11wake_by_ref17h57bb8f386c84d128E+0xf0>
   83b2c:	f94027e0 	ldr	x0, [sp, #72]
   83b30:	52800022 	mov	w2, #0x1                   	// #1
   83b34:	97fff891 	bl	81d78 <__rust_dealloc>
   83b38:	a940a3f4 	ldp	x20, x8, [sp, #8]
   83b3c:	f9400fe1 	ldr	x1, [sp, #24]
   83b40:	a90623f4 	stp	x20, x8, [sp, #96]
   83b44:	f9003be1 	str	x1, [sp, #112]
   83b48:	aa1403e0 	mov	x0, x20
   83b4c:	94000dcd 	bl	87280 <_ZN15ruspiro_console5print17h057cac26d371b76dE>
   83b50:	f94037e1 	ldr	x1, [sp, #104]
   83b54:	b4000081 	cbz	x1, 83b64 <_ZN105_$LT$ruspiro_brain..thoughts..thought..Thought$u20$as$u20$ruspiro_brain..thoughts..wakeable..WakeAble$GT$11wake_by_ref17h57bb8f386c84d128E+0x11c>
   83b58:	aa1403e0 	mov	x0, x20
   83b5c:	52800022 	mov	w2, #0x1                   	// #1
   83b60:	97fff886 	bl	81d78 <__rust_dealloc>
   83b64:	f9400268 	ldr	x8, [x19]
   83b68:	52800200 	mov	w0, #0x10                  	// #16
   83b6c:	f9404ff3 	ldr	x19, [sp, #152]
   83b70:	52800201 	mov	w1, #0x10                  	// #16
   83b74:	f9401914 	ldr	x20, [x8, #48]
   83b78:	97fff87c 	bl	81d68 <__rust_alloc>
   83b7c:	b4000760 	cbz	x0, 83c68 <_ZN105_$LT$ruspiro_brain..thoughts..thought..Thought$u20$as$u20$ruspiro_brain..thoughts..wakeable..WakeAble$GT$11wake_by_ref17h57bb8f386c84d128E+0x220>
   83b80:	9100a289 	add	x9, x20, #0x28
   83b84:	a9004c1f 	stp	xzr, x19, [x0]
   83b88:	c85ffd28 	ldaxr	x8, [x9]
   83b8c:	c80afd20 	stlxr	w10, x0, [x9]
   83b90:	35ffffca 	cbnz	w10, 83b88 <_ZN105_$LT$ruspiro_brain..thoughts..thought..Thought$u20$as$u20$ruspiro_brain..thoughts..wakeable..WakeAble$GT$11wake_by_ref17h57bb8f386c84d128E+0x140>
   83b94:	f9000100 	str	x0, [x8]
   83b98:	d0000048 	adrp	x8, 8d000 <GCC_except_table3+0xa5c>
   83b9c:	52800029 	mov	w9, #0x1                   	// #1
   83ba0:	912ae108 	add	x8, x8, #0xab8
   83ba4:	a9077fff 	stp	xzr, xzr, [sp, #112]
   83ba8:	a90627e8 	stp	x8, x9, [sp, #96]
   83bac:	52800108 	mov	w8, #0x8                   	// #8
   83bb0:	a9087fe8 	stp	x8, xzr, [sp, #128]
   83bb4:	910083e8 	add	x8, sp, #0x20
   83bb8:	910183e0 	add	x0, sp, #0x60
   83bbc:	910083f3 	add	x19, sp, #0x20
   83bc0:	94000e1a 	bl	87428 <_ZN5alloc3fmt6format17hafdd08834ed4019dE>
   83bc4:	9e6702c0 	fmov	d0, x22
   83bc8:	f94013eb 	ldr	x11, [sp, #32]
   83bcc:	a942a3e9 	ldp	x9, x8, [sp, #40]
   83bd0:	910123ea 	add	x10, sp, #0x48
   83bd4:	a907cfff 	stp	xzr, x19, [sp, #120]
   83bd8:	a904a7eb 	stp	x11, x9, [sp, #72]
   83bdc:	52800069 	mov	w9, #0x3                   	// #3
   83be0:	4e181ea0 	mov	v0.d[1], x21
   83be4:	a905dfe8 	stp	x8, x23, [sp, #88]
   83be8:	52800048 	mov	w8, #0x2                   	// #2
   83bec:	a90363ea 	stp	x10, x24, [sp, #48]
   83bf0:	a906ffe9 	stp	x9, xzr, [sp, #104]
   83bf4:	f90047e8 	str	x8, [sp, #136]
   83bf8:	3d800be0 	str	q0, [sp, #32]
   83bfc:	910023e8 	add	x8, sp, #0x8
   83c00:	910183e0 	add	x0, sp, #0x60
   83c04:	94000e09 	bl	87428 <_ZN5alloc3fmt6format17hafdd08834ed4019dE>
   83c08:	f9402be1 	ldr	x1, [sp, #80]
   83c0c:	b4000081 	cbz	x1, 83c1c <_ZN105_$LT$ruspiro_brain..thoughts..thought..Thought$u20$as$u20$ruspiro_brain..thoughts..wakeable..WakeAble$GT$11wake_by_ref17h57bb8f386c84d128E+0x1d4>
   83c10:	f94027e0 	ldr	x0, [sp, #72]
   83c14:	52800022 	mov	w2, #0x1                   	// #1
   83c18:	97fff858 	bl	81d78 <__rust_dealloc>
   83c1c:	a940a3f3 	ldp	x19, x8, [sp, #8]
   83c20:	f9400fe1 	ldr	x1, [sp, #24]
   83c24:	a90623f3 	stp	x19, x8, [sp, #96]
   83c28:	f9003be1 	str	x1, [sp, #112]
   83c2c:	aa1303e0 	mov	x0, x19
   83c30:	94000d94 	bl	87280 <_ZN15ruspiro_console5print17h057cac26d371b76dE>
   83c34:	f94037e1 	ldr	x1, [sp, #104]
   83c38:	b4000081 	cbz	x1, 83c48 <_ZN105_$LT$ruspiro_brain..thoughts..thought..Thought$u20$as$u20$ruspiro_brain..thoughts..wakeable..WakeAble$GT$11wake_by_ref17h57bb8f386c84d128E+0x200>
   83c3c:	aa1303e0 	mov	x0, x19
   83c40:	52800022 	mov	w2, #0x1                   	// #1
   83c44:	97fff84d 	bl	81d78 <__rust_dealloc>
   83c48:	a94c7bf3 	ldp	x19, x30, [sp, #192]
   83c4c:	f9404bf8 	ldr	x24, [sp, #144]
   83c50:	a94b53f5 	ldp	x21, x20, [sp, #176]
   83c54:	a94a5bf7 	ldp	x23, x22, [sp, #160]
   83c58:	910343ff 	add	sp, sp, #0xd0
   83c5c:	d65f03c0 	ret
   83c60:	d4200020 	brk	#0x1
   83c64:	d4200020 	brk	#0x1
   83c68:	52800200 	mov	w0, #0x10                  	// #16
   83c6c:	52800201 	mov	w1, #0x10                  	// #16
   83c70:	94000de4 	bl	87400 <_ZN5alloc5alloc18handle_alloc_error17h11286e57f71cf9c1E>
   83c74:	d4200020 	brk	#0x1
   83c78:	aa0003f3 	mov	x19, x0
   83c7c:	910183e0 	add	x0, sp, #0x60
   83c80:	97ffff5c 	bl	839f0 <_ZN4core3ptr18real_drop_in_place17h557394cb1f98129bE>
   83c84:	aa1303e0 	mov	x0, x19
   83c88:	9400001a 	bl	83cf0 <_Unwind_Resume>
   83c8c:	d4200020 	brk	#0x1
   83c90:	aa0003f3 	mov	x19, x0
   83c94:	910123e0 	add	x0, sp, #0x48
   83c98:	97ffff56 	bl	839f0 <_ZN4core3ptr18real_drop_in_place17h557394cb1f98129bE>
   83c9c:	aa1303e0 	mov	x0, x19
   83ca0:	94000014 	bl	83cf0 <_Unwind_Resume>
   83ca4:	d4200020 	brk	#0x1
   83ca8:	aa0003f3 	mov	x19, x0
   83cac:	aa1303e0 	mov	x0, x19
   83cb0:	94000010 	bl	83cf0 <_Unwind_Resume>
   83cb4:	d4200020 	brk	#0x1
   83cb8:	aa0003f3 	mov	x19, x0
   83cbc:	910183e0 	add	x0, sp, #0x60
   83cc0:	97ffff4c 	bl	839f0 <_ZN4core3ptr18real_drop_in_place17h557394cb1f98129bE>
   83cc4:	14000006 	b	83cdc <_ZN105_$LT$ruspiro_brain..thoughts..thought..Thought$u20$as$u20$ruspiro_brain..thoughts..wakeable..WakeAble$GT$11wake_by_ref17h57bb8f386c84d128E+0x294>
   83cc8:	aa0003f3 	mov	x19, x0
   83ccc:	910123e0 	add	x0, sp, #0x48
   83cd0:	97ffff48 	bl	839f0 <_ZN4core3ptr18real_drop_in_place17h557394cb1f98129bE>
   83cd4:	14000002 	b	83cdc <_ZN105_$LT$ruspiro_brain..thoughts..thought..Thought$u20$as$u20$ruspiro_brain..thoughts..wakeable..WakeAble$GT$11wake_by_ref17h57bb8f386c84d128E+0x294>
   83cd8:	aa0003f3 	mov	x19, x0
   83cdc:	910263e0 	add	x0, sp, #0x98
   83ce0:	97ffff4a 	bl	83a08 <_ZN4core3ptr18real_drop_in_place17h742e1db7865957f5E>
   83ce4:	aa1303e0 	mov	x0, x19
   83ce8:	94000002 	bl	83cf0 <_Unwind_Resume>
   83cec:	d4200020 	brk	#0x1

0000000000083cf0 <_Unwind_Resume>:
   83cf0:	d65f03c0 	ret
   83cf4:	00000000 	.inst	0x00000000 ; undefined

0000000000083cf8 <_ZN4core3ptr18real_drop_in_place17hbbd74dd63f0ead4fE>:
   83cf8:	f9400401 	ldr	x1, [x0, #8]
   83cfc:	b4000081 	cbz	x1, 83d0c <_ZN4core3ptr18real_drop_in_place17hbbd74dd63f0ead4fE+0x14>
   83d00:	f9400000 	ldr	x0, [x0]
   83d04:	52800022 	mov	w2, #0x1                   	// #1
   83d08:	17fff81c 	b	81d78 <__rust_dealloc>
   83d0c:	d65f03c0 	ret

0000000000083d10 <_ZN60_$LT$alloc..string..String$u20$as$u20$core..fmt..Display$GT$3fmt17he9b65cb3b2e3446eE>:
   83d10:	f9400008 	ldr	x8, [x0]
   83d14:	aa0103e2 	mov	x2, x1
   83d18:	f9400809 	ldr	x9, [x0, #16]
   83d1c:	aa0803e0 	mov	x0, x8
   83d20:	aa0903e1 	mov	x1, x9
   83d24:	1400174b 	b	89a50 <_ZN42_$LT$str$u20$as$u20$core..fmt..Display$GT$3fmt17h5a9de3cd403484d2E>

0000000000083d28 <rust_begin_unwind>:
   83d28:	d10303ff 	sub	sp, sp, #0xc0
   83d2c:	a90a53f5 	stp	x21, x20, [sp, #160]
   83d30:	a90b7bf3 	stp	x19, x30, [sp, #176]
   83d34:	94001089 	bl	87f58 <_ZN4core5panic9PanicInfo8location17h99607b6ab81c0b4dE>
   83d38:	b40007e0 	cbz	x0, 83e34 <rust_begin_unwind+0x10c>
   83d3c:	aa0003f3 	mov	x19, x0
   83d40:	94001088 	bl	87f60 <_ZN4core5panic8Location4file17heb49df6102de4e30E>
   83d44:	a90407e0 	stp	x0, x1, [sp, #64]
   83d48:	aa1303e0 	mov	x0, x19
   83d4c:	94001088 	bl	87f6c <_ZN4core5panic8Location4line17h4e0ac00bd2f31693E>
   83d50:	b9003be0 	str	w0, [sp, #56]
   83d54:	aa1303e0 	mov	x0, x19
   83d58:	94001087 	bl	87f74 <_ZN4core5panic8Location6column17h0f6be5edfbf47b79E>
   83d5c:	d0000009 	adrp	x9, 85000 <_ZN4core3ptr18real_drop_in_place17hbbd74dd63f0ead4fE>
   83d60:	f000004a 	adrp	x10, 8e000 <_ZN4core3fmt3num14DEC_DIGITS_LUT17h46bba502bada2534E+0x1c0>
   83d64:	910103e8 	add	x8, sp, #0x40
   83d68:	9108e129 	add	x9, x9, #0x238
   83d6c:	52800073 	mov	w19, #0x3                   	// #3
   83d70:	9100e3eb 	add	x11, sp, #0x38
   83d74:	f944394a 	ldr	x10, [x10, #2160]
   83d78:	910163f4 	add	x20, sp, #0x58
   83d7c:	a90727e8 	stp	x8, x9, [sp, #112]
   83d80:	9100f3e8 	add	x8, sp, #0x3c
   83d84:	b9003fe0 	str	w0, [sp, #60]
   83d88:	910003e0 	mov	x0, sp
   83d8c:	a9017fff 	stp	xzr, xzr, [sp, #16]
   83d90:	910003f5 	mov	x21, sp
   83d94:	a9092be8 	stp	x8, x10, [sp, #144]
   83d98:	d0000048 	adrp	x8, 8d000 <GCC_except_table3+0xa5c>
   83d9c:	912c6108 	add	x8, x8, #0xb18
   83da0:	a9082beb 	stp	x11, x10, [sp, #128]
   83da4:	a9004fe8 	stp	x8, x19, [sp]
   83da8:	9101c3e8 	add	x8, sp, #0x70
   83dac:	a9024fe8 	stp	x8, x19, [sp, #32]
   83db0:	910163e8 	add	x8, sp, #0x58
   83db4:	94000d9d 	bl	87428 <_ZN5alloc3fmt6format17hafdd08834ed4019dE>
   83db8:	d0000048 	adrp	x8, 8d000 <GCC_except_table3+0xa5c>
   83dbc:	90000009 	adrp	x9, 83000 <_ZN13ruspiro_brain8thoughts8wakeable17wake_wakeable_raw17hb0a6b7bc13fc6a19E+0x90>
   83dc0:	912be108 	add	x8, x8, #0xaf8
   83dc4:	91344129 	add	x9, x9, #0xd10
   83dc8:	a9087fff 	stp	xzr, xzr, [sp, #128]
   83dcc:	9e670100 	fmov	d0, x8
   83dd0:	d0000008 	adrp	x8, 85000 <_ZN4core3ptr18real_drop_in_place17hbbd74dd63f0ead4fE>
   83dd4:	91094108 	add	x8, x8, #0x250
   83dd8:	a90127f4 	stp	x20, x9, [sp, #16]
   83ddc:	4e181d00 	mov	v0.d[1], x8
   83de0:	d0000048 	adrp	x8, 8d000 <GCC_except_table3+0xa5c>
   83de4:	912b2108 	add	x8, x8, #0xac8
   83de8:	a9074fe8 	stp	x8, x19, [sp, #112]
   83dec:	52800048 	mov	w8, #0x2                   	// #2
   83df0:	3d8003e0 	str	q0, [sp]
   83df4:	a90923f5 	stp	x21, x8, [sp, #144]
   83df8:	910103e8 	add	x8, sp, #0x40
   83dfc:	9101c3e0 	add	x0, sp, #0x70
   83e00:	94000d8a 	bl	87428 <_ZN5alloc3fmt6format17hafdd08834ed4019dE>
   83e04:	f94033e1 	ldr	x1, [sp, #96]
   83e08:	b4000081 	cbz	x1, 83e18 <rust_begin_unwind+0xf0>
   83e0c:	f9402fe0 	ldr	x0, [sp, #88]
   83e10:	52800022 	mov	w2, #0x1                   	// #1
   83e14:	97fff7d9 	bl	81d78 <__rust_dealloc>
   83e18:	a94423f3 	ldp	x19, x8, [sp, #64]
   83e1c:	f9402be1 	ldr	x1, [sp, #80]
   83e20:	a90723f3 	stp	x19, x8, [sp, #112]
   83e24:	f90043e1 	str	x1, [sp, #128]
   83e28:	aa1303e0 	mov	x0, x19
   83e2c:	94000d15 	bl	87280 <_ZN15ruspiro_console5print17h057cac26d371b76dE>
   83e30:	1400002c 	b	83ee0 <rust_begin_unwind+0x1b8>
   83e34:	d0000048 	adrp	x8, 8d000 <GCC_except_table3+0xa5c>
   83e38:	52800029 	mov	w9, #0x1                   	// #1
   83e3c:	912c2108 	add	x8, x8, #0xb08
   83e40:	5280010a 	mov	w10, #0x8                   	// #8
   83e44:	9101c3e0 	add	x0, sp, #0x70
   83e48:	a9087fff 	stp	xzr, xzr, [sp, #128]
   83e4c:	910163f3 	add	x19, sp, #0x58
   83e50:	a90727e8 	stp	x8, x9, [sp, #112]
   83e54:	910163e8 	add	x8, sp, #0x58
   83e58:	a9097fea 	stp	x10, xzr, [sp, #144]
   83e5c:	94000d73 	bl	87428 <_ZN5alloc3fmt6format17hafdd08834ed4019dE>
   83e60:	d0000048 	adrp	x8, 8d000 <GCC_except_table3+0xa5c>
   83e64:	90000009 	adrp	x9, 83000 <_ZN13ruspiro_brain8thoughts8wakeable17wake_wakeable_raw17hb0a6b7bc13fc6a19E+0x90>
   83e68:	912be108 	add	x8, x8, #0xaf8
   83e6c:	d000004a 	adrp	x10, 8d000 <GCC_except_table3+0xa5c>
   83e70:	91344129 	add	x9, x9, #0xd10
   83e74:	912b214a 	add	x10, x10, #0xac8
   83e78:	a9087fff 	stp	xzr, xzr, [sp, #128]
   83e7c:	9e670100 	fmov	d0, x8
   83e80:	d0000008 	adrp	x8, 85000 <_ZN4core3ptr18real_drop_in_place17hbbd74dd63f0ead4fE>
   83e84:	91094108 	add	x8, x8, #0x250
   83e88:	a90127f3 	stp	x19, x9, [sp, #16]
   83e8c:	52800049 	mov	w9, #0x2                   	// #2
   83e90:	4e181d00 	mov	v0.d[1], x8
   83e94:	52800068 	mov	w8, #0x3                   	// #3
   83e98:	a90723ea 	stp	x10, x8, [sp, #112]
   83e9c:	910003e8 	mov	x8, sp
   83ea0:	3d8003e0 	str	q0, [sp]
   83ea4:	a90927e8 	stp	x8, x9, [sp, #144]
   83ea8:	910103e8 	add	x8, sp, #0x40
   83eac:	9101c3e0 	add	x0, sp, #0x70
   83eb0:	94000d5e 	bl	87428 <_ZN5alloc3fmt6format17hafdd08834ed4019dE>
   83eb4:	f94033e1 	ldr	x1, [sp, #96]
   83eb8:	b4000081 	cbz	x1, 83ec8 <rust_begin_unwind+0x1a0>
   83ebc:	f9402fe0 	ldr	x0, [sp, #88]
   83ec0:	52800022 	mov	w2, #0x1                   	// #1
   83ec4:	97fff7ad 	bl	81d78 <__rust_dealloc>
   83ec8:	a94423f3 	ldp	x19, x8, [sp, #64]
   83ecc:	f9402be1 	ldr	x1, [sp, #80]
   83ed0:	a90723f3 	stp	x19, x8, [sp, #112]
   83ed4:	f90043e1 	str	x1, [sp, #128]
   83ed8:	aa1303e0 	mov	x0, x19
   83edc:	94000ce9 	bl	87280 <_ZN15ruspiro_console5print17h057cac26d371b76dE>
   83ee0:	f9403fe1 	ldr	x1, [sp, #120]
   83ee4:	b4000081 	cbz	x1, 83ef4 <rust_begin_unwind+0x1cc>
   83ee8:	aa1303e0 	mov	x0, x19
   83eec:	52800022 	mov	w2, #0x1                   	// #1
   83ef0:	97fff7a2 	bl	81d78 <__rust_dealloc>
   83ef4:	14000000 	b	83ef4 <rust_begin_unwind+0x1cc>
   83ef8:	14000002 	b	83f00 <rust_begin_unwind+0x1d8>
   83efc:	14000007 	b	83f18 <rust_begin_unwind+0x1f0>
   83f00:	aa0003f3 	mov	x19, x0
   83f04:	9101c3e0 	add	x0, sp, #0x70
   83f08:	97ffff7c 	bl	83cf8 <_ZN4core3ptr18real_drop_in_place17hbbd74dd63f0ead4fE>
   83f0c:	aa1303e0 	mov	x0, x19
   83f10:	97ffff78 	bl	83cf0 <_Unwind_Resume>
   83f14:	d4200020 	brk	#0x1
   83f18:	aa0003f3 	mov	x19, x0
   83f1c:	910163e0 	add	x0, sp, #0x58
   83f20:	97ffff76 	bl	83cf8 <_ZN4core3ptr18real_drop_in_place17hbbd74dd63f0ead4fE>
   83f24:	aa1303e0 	mov	x0, x19
   83f28:	97ffff72 	bl	83cf0 <_Unwind_Resume>
   83f2c:	d4200020 	brk	#0x1

0000000000083f30 <rust_eh_personality>:
   83f30:	d65f03c0 	ret

0000000000083f34 <__hang>:
   83f34:	d503205f 	wfe
   83f38:	17ffffff 	b	83f34 <__hang>
	...
   84000:	d503201f 	nop
   84004:	d65f03c0 	ret

0000000000084008 <__exception_trampoline>:
   84008:	d102c3ff 	sub	sp, sp, #0xb0
   8400c:	a90007e0 	stp	x0, x1, [sp]
   84010:	a9010fe2 	stp	x2, x3, [sp, #16]
   84014:	a90217e4 	stp	x4, x5, [sp, #32]
   84018:	a9031fe6 	stp	x6, x7, [sp, #48]
   8401c:	a90427e8 	stp	x8, x9, [sp, #64]
   84020:	a9052fea 	stp	x10, x11, [sp, #80]
   84024:	a90637ec 	stp	x12, x13, [sp, #96]
   84028:	a9073fee 	stp	x14, x15, [sp, #112]
   8402c:	a90847f0 	stp	x16, x17, [sp, #128]
   84030:	a9097bf2 	stp	x18, x30, [sp, #144]
   84034:	d538400a 	mrs	x10, spsr_el1
   84038:	d538402b 	mrs	x11, elr_el1
   8403c:	a90a2fea 	stp	x10, x11, [sp, #160]
   84040:	d5385201 	mrs	x1, esr_el1
   84044:	d5384002 	mrs	x2, spsr_el1
   84048:	d5386003 	mrs	x3, far_el1
   8404c:	d5384024 	mrs	x4, elr_el1
   84050:	94000a36 	bl	86928 <__exception_handler_default>
   84054:	a94a2fea 	ldp	x10, x11, [sp, #160]
   84058:	d518402b 	msr	elr_el1, x11
   8405c:	d518400a 	msr	spsr_el1, x10
   84060:	a94007e0 	ldp	x0, x1, [sp]
   84064:	a9410fe2 	ldp	x2, x3, [sp, #16]
   84068:	a94217e4 	ldp	x4, x5, [sp, #32]
   8406c:	a9431fe6 	ldp	x6, x7, [sp, #48]
   84070:	a94427e8 	ldp	x8, x9, [sp, #64]
   84074:	a9452fea 	ldp	x10, x11, [sp, #80]
   84078:	a94637ec 	ldp	x12, x13, [sp, #96]
   8407c:	a9473fee 	ldp	x14, x15, [sp, #112]
   84080:	a94847f0 	ldp	x16, x17, [sp, #128]
   84084:	a9497bf2 	ldp	x18, x30, [sp, #144]
   84088:	9102c3ff 	add	sp, sp, #0xb0
   8408c:	d65f03c0 	ret
   84090:	d503201f 	nop
   84094:	d503201f 	nop
   84098:	d503201f 	nop
   8409c:	d503201f 	nop
   840a0:	d503201f 	nop
   840a4:	d503201f 	nop
   840a8:	d503201f 	nop
   840ac:	d503201f 	nop
   840b0:	d503201f 	nop
   840b4:	d503201f 	nop
   840b8:	d503201f 	nop
   840bc:	d503201f 	nop
   840c0:	d503201f 	nop
   840c4:	d503201f 	nop
   840c8:	d503201f 	nop
   840cc:	d503201f 	nop
   840d0:	d503201f 	nop
   840d4:	d503201f 	nop
   840d8:	d503201f 	nop
   840dc:	d503201f 	nop
   840e0:	d503201f 	nop
   840e4:	d503201f 	nop
   840e8:	d503201f 	nop
   840ec:	d503201f 	nop
   840f0:	d503201f 	nop
   840f4:	d503201f 	nop
   840f8:	d503201f 	nop
   840fc:	d503201f 	nop
   84100:	d503201f 	nop
   84104:	d503201f 	nop
   84108:	d503201f 	nop
   8410c:	d503201f 	nop
   84110:	d503201f 	nop
   84114:	d503201f 	nop
   84118:	d503201f 	nop
   8411c:	d503201f 	nop
   84120:	d503201f 	nop
   84124:	d503201f 	nop
   84128:	d503201f 	nop
   8412c:	d503201f 	nop
   84130:	d503201f 	nop
   84134:	d503201f 	nop
   84138:	d503201f 	nop
   8413c:	d503201f 	nop
   84140:	d503201f 	nop
   84144:	d503201f 	nop
   84148:	d503201f 	nop
   8414c:	d503201f 	nop
   84150:	d503201f 	nop
   84154:	d503201f 	nop
   84158:	d503201f 	nop
   8415c:	d503201f 	nop
   84160:	d503201f 	nop
   84164:	d503201f 	nop
   84168:	d503201f 	nop
   8416c:	d503201f 	nop
   84170:	d503201f 	nop
   84174:	d503201f 	nop
   84178:	d503201f 	nop
   8417c:	d503201f 	nop
   84180:	d503201f 	nop
   84184:	d503201f 	nop
   84188:	d503201f 	nop
   8418c:	d503201f 	nop
   84190:	d503201f 	nop
   84194:	d503201f 	nop
   84198:	d503201f 	nop
   8419c:	d503201f 	nop
   841a0:	d503201f 	nop
   841a4:	d503201f 	nop
   841a8:	d503201f 	nop
   841ac:	d503201f 	nop
   841b0:	d503201f 	nop
   841b4:	d503201f 	nop
   841b8:	d503201f 	nop
   841bc:	d503201f 	nop
   841c0:	d503201f 	nop
   841c4:	d503201f 	nop
   841c8:	d503201f 	nop
   841cc:	d503201f 	nop
   841d0:	d503201f 	nop
   841d4:	d503201f 	nop
   841d8:	d503201f 	nop
   841dc:	d503201f 	nop
   841e0:	d503201f 	nop
   841e4:	d503201f 	nop
   841e8:	d503201f 	nop
   841ec:	d503201f 	nop
   841f0:	d503201f 	nop
   841f4:	d503201f 	nop
   841f8:	d503201f 	nop
   841fc:	d503201f 	nop
   84200:	d503201f 	nop
   84204:	d503201f 	nop
   84208:	d503201f 	nop
   8420c:	d503201f 	nop
   84210:	d503201f 	nop
   84214:	d503201f 	nop
   84218:	d503201f 	nop
   8421c:	d503201f 	nop
   84220:	d503201f 	nop
   84224:	d503201f 	nop
   84228:	d503201f 	nop
   8422c:	d503201f 	nop
   84230:	d503201f 	nop
   84234:	d503201f 	nop
   84238:	d503201f 	nop
   8423c:	d503201f 	nop
   84240:	d503201f 	nop
   84244:	d503201f 	nop
   84248:	d503201f 	nop
   8424c:	d503201f 	nop
   84250:	d503201f 	nop
   84254:	d503201f 	nop
   84258:	d503201f 	nop
   8425c:	d503201f 	nop
   84260:	d503201f 	nop
   84264:	d503201f 	nop
   84268:	d503201f 	nop
   8426c:	d503201f 	nop
   84270:	d503201f 	nop
   84274:	d503201f 	nop
   84278:	d503201f 	nop
   8427c:	d503201f 	nop
   84280:	d503201f 	nop
   84284:	d503201f 	nop
   84288:	d503201f 	nop
   8428c:	d503201f 	nop
   84290:	d503201f 	nop
   84294:	d503201f 	nop
   84298:	d503201f 	nop
   8429c:	d503201f 	nop
   842a0:	d503201f 	nop
   842a4:	d503201f 	nop
   842a8:	d503201f 	nop
   842ac:	d503201f 	nop
   842b0:	d503201f 	nop
   842b4:	d503201f 	nop
   842b8:	d503201f 	nop
   842bc:	d503201f 	nop
   842c0:	d503201f 	nop
   842c4:	d503201f 	nop
   842c8:	d503201f 	nop
   842cc:	d503201f 	nop
   842d0:	d503201f 	nop
   842d4:	d503201f 	nop
   842d8:	d503201f 	nop
   842dc:	d503201f 	nop
   842e0:	d503201f 	nop
   842e4:	d503201f 	nop
   842e8:	d503201f 	nop
   842ec:	d503201f 	nop
   842f0:	d503201f 	nop
   842f4:	d503201f 	nop
   842f8:	d503201f 	nop
   842fc:	d503201f 	nop
   84300:	d503201f 	nop
   84304:	d503201f 	nop
   84308:	d503201f 	nop
   8430c:	d503201f 	nop
   84310:	d503201f 	nop
   84314:	d503201f 	nop
   84318:	d503201f 	nop
   8431c:	d503201f 	nop
   84320:	d503201f 	nop
   84324:	d503201f 	nop
   84328:	d503201f 	nop
   8432c:	d503201f 	nop
   84330:	d503201f 	nop
   84334:	d503201f 	nop
   84338:	d503201f 	nop
   8433c:	d503201f 	nop
   84340:	d503201f 	nop
   84344:	d503201f 	nop
   84348:	d503201f 	nop
   8434c:	d503201f 	nop
   84350:	d503201f 	nop
   84354:	d503201f 	nop
   84358:	d503201f 	nop
   8435c:	d503201f 	nop
   84360:	d503201f 	nop
   84364:	d503201f 	nop
   84368:	d503201f 	nop
   8436c:	d503201f 	nop
   84370:	d503201f 	nop
   84374:	d503201f 	nop
   84378:	d503201f 	nop
   8437c:	d503201f 	nop
   84380:	d503201f 	nop
   84384:	d503201f 	nop
   84388:	d503201f 	nop
   8438c:	d503201f 	nop
   84390:	d503201f 	nop
   84394:	d503201f 	nop
   84398:	d503201f 	nop
   8439c:	d503201f 	nop
   843a0:	d503201f 	nop
   843a4:	d503201f 	nop
   843a8:	d503201f 	nop
   843ac:	d503201f 	nop
   843b0:	d503201f 	nop
   843b4:	d503201f 	nop
   843b8:	d503201f 	nop
   843bc:	d503201f 	nop
   843c0:	d503201f 	nop
   843c4:	d503201f 	nop
   843c8:	d503201f 	nop
   843cc:	d503201f 	nop
   843d0:	d503201f 	nop
   843d4:	d503201f 	nop
   843d8:	d503201f 	nop
   843dc:	d503201f 	nop
   843e0:	d503201f 	nop
   843e4:	d503201f 	nop
   843e8:	d503201f 	nop
   843ec:	d503201f 	nop
   843f0:	d503201f 	nop
   843f4:	d503201f 	nop
   843f8:	d503201f 	nop
   843fc:	d503201f 	nop
   84400:	d503201f 	nop
   84404:	d503201f 	nop
   84408:	d503201f 	nop
   8440c:	d503201f 	nop
   84410:	d503201f 	nop
   84414:	d503201f 	nop
   84418:	d503201f 	nop
   8441c:	d503201f 	nop
   84420:	d503201f 	nop
   84424:	d503201f 	nop
   84428:	d503201f 	nop
   8442c:	d503201f 	nop
   84430:	d503201f 	nop
   84434:	d503201f 	nop
   84438:	d503201f 	nop
   8443c:	d503201f 	nop
   84440:	d503201f 	nop
   84444:	d503201f 	nop
   84448:	d503201f 	nop
   8444c:	d503201f 	nop
   84450:	d503201f 	nop
   84454:	d503201f 	nop
   84458:	d503201f 	nop
   8445c:	d503201f 	nop
   84460:	d503201f 	nop
   84464:	d503201f 	nop
   84468:	d503201f 	nop
   8446c:	d503201f 	nop
   84470:	d503201f 	nop
   84474:	d503201f 	nop
   84478:	d503201f 	nop
   8447c:	d503201f 	nop
   84480:	d503201f 	nop
   84484:	d503201f 	nop
   84488:	d503201f 	nop
   8448c:	d503201f 	nop
   84490:	d503201f 	nop
   84494:	d503201f 	nop
   84498:	d503201f 	nop
   8449c:	d503201f 	nop
   844a0:	d503201f 	nop
   844a4:	d503201f 	nop
   844a8:	d503201f 	nop
   844ac:	d503201f 	nop
   844b0:	d503201f 	nop
   844b4:	d503201f 	nop
   844b8:	d503201f 	nop
   844bc:	d503201f 	nop
   844c0:	d503201f 	nop
   844c4:	d503201f 	nop
   844c8:	d503201f 	nop
   844cc:	d503201f 	nop
   844d0:	d503201f 	nop
   844d4:	d503201f 	nop
   844d8:	d503201f 	nop
   844dc:	d503201f 	nop
   844e0:	d503201f 	nop
   844e4:	d503201f 	nop
   844e8:	d503201f 	nop
   844ec:	d503201f 	nop
   844f0:	d503201f 	nop
   844f4:	d503201f 	nop
   844f8:	d503201f 	nop
   844fc:	d503201f 	nop
   84500:	d503201f 	nop
   84504:	d503201f 	nop
   84508:	d503201f 	nop
   8450c:	d503201f 	nop
   84510:	d503201f 	nop
   84514:	d503201f 	nop
   84518:	d503201f 	nop
   8451c:	d503201f 	nop
   84520:	d503201f 	nop
   84524:	d503201f 	nop
   84528:	d503201f 	nop
   8452c:	d503201f 	nop
   84530:	d503201f 	nop
   84534:	d503201f 	nop
   84538:	d503201f 	nop
   8453c:	d503201f 	nop
   84540:	d503201f 	nop
   84544:	d503201f 	nop
   84548:	d503201f 	nop
   8454c:	d503201f 	nop
   84550:	d503201f 	nop
   84554:	d503201f 	nop
   84558:	d503201f 	nop
   8455c:	d503201f 	nop
   84560:	d503201f 	nop
   84564:	d503201f 	nop
   84568:	d503201f 	nop
   8456c:	d503201f 	nop
   84570:	d503201f 	nop
   84574:	d503201f 	nop
   84578:	d503201f 	nop
   8457c:	d503201f 	nop
   84580:	d503201f 	nop
   84584:	d503201f 	nop
   84588:	d503201f 	nop
   8458c:	d503201f 	nop
   84590:	d503201f 	nop
   84594:	d503201f 	nop
   84598:	d503201f 	nop
   8459c:	d503201f 	nop
   845a0:	d503201f 	nop
   845a4:	d503201f 	nop
   845a8:	d503201f 	nop
   845ac:	d503201f 	nop
   845b0:	d503201f 	nop
   845b4:	d503201f 	nop
   845b8:	d503201f 	nop
   845bc:	d503201f 	nop
   845c0:	d503201f 	nop
   845c4:	d503201f 	nop
   845c8:	d503201f 	nop
   845cc:	d503201f 	nop
   845d0:	d503201f 	nop
   845d4:	d503201f 	nop
   845d8:	d503201f 	nop
   845dc:	d503201f 	nop
   845e0:	d503201f 	nop
   845e4:	d503201f 	nop
   845e8:	d503201f 	nop
   845ec:	d503201f 	nop
   845f0:	d503201f 	nop
   845f4:	d503201f 	nop
   845f8:	d503201f 	nop
   845fc:	d503201f 	nop
   84600:	d503201f 	nop
   84604:	d503201f 	nop
   84608:	d503201f 	nop
   8460c:	d503201f 	nop
   84610:	d503201f 	nop
   84614:	d503201f 	nop
   84618:	d503201f 	nop
   8461c:	d503201f 	nop
   84620:	d503201f 	nop
   84624:	d503201f 	nop
   84628:	d503201f 	nop
   8462c:	d503201f 	nop
   84630:	d503201f 	nop
   84634:	d503201f 	nop
   84638:	d503201f 	nop
   8463c:	d503201f 	nop
   84640:	d503201f 	nop
   84644:	d503201f 	nop
   84648:	d503201f 	nop
   8464c:	d503201f 	nop
   84650:	d503201f 	nop
   84654:	d503201f 	nop
   84658:	d503201f 	nop
   8465c:	d503201f 	nop
   84660:	d503201f 	nop
   84664:	d503201f 	nop
   84668:	d503201f 	nop
   8466c:	d503201f 	nop
   84670:	d503201f 	nop
   84674:	d503201f 	nop
   84678:	d503201f 	nop
   8467c:	d503201f 	nop
   84680:	d503201f 	nop
   84684:	d503201f 	nop
   84688:	d503201f 	nop
   8468c:	d503201f 	nop
   84690:	d503201f 	nop
   84694:	d503201f 	nop
   84698:	d503201f 	nop
   8469c:	d503201f 	nop
   846a0:	d503201f 	nop
   846a4:	d503201f 	nop
   846a8:	d503201f 	nop
   846ac:	d503201f 	nop
   846b0:	d503201f 	nop
   846b4:	d503201f 	nop
   846b8:	d503201f 	nop
   846bc:	d503201f 	nop
   846c0:	d503201f 	nop
   846c4:	d503201f 	nop
   846c8:	d503201f 	nop
   846cc:	d503201f 	nop
   846d0:	d503201f 	nop
   846d4:	d503201f 	nop
   846d8:	d503201f 	nop
   846dc:	d503201f 	nop
   846e0:	d503201f 	nop
   846e4:	d503201f 	nop
   846e8:	d503201f 	nop
   846ec:	d503201f 	nop
   846f0:	d503201f 	nop
   846f4:	d503201f 	nop
   846f8:	d503201f 	nop
   846fc:	d503201f 	nop
   84700:	d503201f 	nop
   84704:	d503201f 	nop
   84708:	d503201f 	nop
   8470c:	d503201f 	nop
   84710:	d503201f 	nop
   84714:	d503201f 	nop
   84718:	d503201f 	nop
   8471c:	d503201f 	nop
   84720:	d503201f 	nop
   84724:	d503201f 	nop
   84728:	d503201f 	nop
   8472c:	d503201f 	nop
   84730:	d503201f 	nop
   84734:	d503201f 	nop
   84738:	d503201f 	nop
   8473c:	d503201f 	nop
   84740:	d503201f 	nop
   84744:	d503201f 	nop
   84748:	d503201f 	nop
   8474c:	d503201f 	nop
   84750:	d503201f 	nop
   84754:	d503201f 	nop
   84758:	d503201f 	nop
   8475c:	d503201f 	nop
   84760:	d503201f 	nop
   84764:	d503201f 	nop
   84768:	d503201f 	nop
   8476c:	d503201f 	nop
   84770:	d503201f 	nop
   84774:	d503201f 	nop
   84778:	d503201f 	nop
   8477c:	d503201f 	nop
   84780:	d503201f 	nop
   84784:	d503201f 	nop
   84788:	d503201f 	nop
   8478c:	d503201f 	nop
   84790:	d503201f 	nop
   84794:	d503201f 	nop
   84798:	d503201f 	nop
   8479c:	d503201f 	nop
   847a0:	d503201f 	nop
   847a4:	d503201f 	nop
   847a8:	d503201f 	nop
   847ac:	d503201f 	nop
   847b0:	d503201f 	nop
   847b4:	d503201f 	nop
   847b8:	d503201f 	nop
   847bc:	d503201f 	nop
   847c0:	d503201f 	nop
   847c4:	d503201f 	nop
   847c8:	d503201f 	nop
   847cc:	d503201f 	nop
   847d0:	d503201f 	nop
   847d4:	d503201f 	nop
   847d8:	d503201f 	nop
   847dc:	d503201f 	nop
   847e0:	d503201f 	nop
   847e4:	d503201f 	nop
   847e8:	d503201f 	nop
   847ec:	d503201f 	nop
   847f0:	d503201f 	nop
   847f4:	d503201f 	nop
   847f8:	d503201f 	nop
   847fc:	d503201f 	nop

0000000000084800 <__ExceptionVectorTable>:
   84800:	d10043ff 	sub	sp, sp, #0x10
   84804:	a9007be0 	stp	x0, x30, [sp]
   84808:	d2800020 	mov	x0, #0x1                   	// #1
   8480c:	97fffdff 	bl	84008 <__exception_trampoline>
   84810:	a9407be0 	ldp	x0, x30, [sp]
   84814:	910043ff 	add	sp, sp, #0x10
   84818:	d69f03e0 	eret
   8481c:	d503201f 	nop
   84820:	d503201f 	nop
   84824:	d503201f 	nop
   84828:	d503201f 	nop
   8482c:	d503201f 	nop
   84830:	d503201f 	nop
   84834:	d503201f 	nop
   84838:	d503201f 	nop
   8483c:	d503201f 	nop
   84840:	d503201f 	nop
   84844:	d503201f 	nop
   84848:	d503201f 	nop
   8484c:	d503201f 	nop
   84850:	d503201f 	nop
   84854:	d503201f 	nop
   84858:	d503201f 	nop
   8485c:	d503201f 	nop
   84860:	d503201f 	nop
   84864:	d503201f 	nop
   84868:	d503201f 	nop
   8486c:	d503201f 	nop
   84870:	d503201f 	nop
   84874:	d503201f 	nop
   84878:	d503201f 	nop
   8487c:	d503201f 	nop

0000000000084880 <.EXC_CURREL_SP0_Irq>:
   84880:	d10043ff 	sub	sp, sp, #0x10
   84884:	a9007be0 	stp	x0, x30, [sp]
   84888:	d2800040 	mov	x0, #0x2                   	// #2
   8488c:	97fffddf 	bl	84008 <__exception_trampoline>
   84890:	a9407be0 	ldp	x0, x30, [sp]
   84894:	910043ff 	add	sp, sp, #0x10
   84898:	d69f03e0 	eret
   8489c:	d503201f 	nop
   848a0:	d503201f 	nop
   848a4:	d503201f 	nop
   848a8:	d503201f 	nop
   848ac:	d503201f 	nop
   848b0:	d503201f 	nop
   848b4:	d503201f 	nop
   848b8:	d503201f 	nop
   848bc:	d503201f 	nop
   848c0:	d503201f 	nop
   848c4:	d503201f 	nop
   848c8:	d503201f 	nop
   848cc:	d503201f 	nop
   848d0:	d503201f 	nop
   848d4:	d503201f 	nop
   848d8:	d503201f 	nop
   848dc:	d503201f 	nop
   848e0:	d503201f 	nop
   848e4:	d503201f 	nop
   848e8:	d503201f 	nop
   848ec:	d503201f 	nop
   848f0:	d503201f 	nop
   848f4:	d503201f 	nop
   848f8:	d503201f 	nop
   848fc:	d503201f 	nop

0000000000084900 <.EXC_CURREL_SP0_Fiq>:
   84900:	d10043ff 	sub	sp, sp, #0x10
   84904:	a9007be0 	stp	x0, x30, [sp]
   84908:	d2800060 	mov	x0, #0x3                   	// #3
   8490c:	97fffdbf 	bl	84008 <__exception_trampoline>
   84910:	a9407be0 	ldp	x0, x30, [sp]
   84914:	910043ff 	add	sp, sp, #0x10
   84918:	d69f03e0 	eret
   8491c:	d503201f 	nop
   84920:	d503201f 	nop
   84924:	d503201f 	nop
   84928:	d503201f 	nop
   8492c:	d503201f 	nop
   84930:	d503201f 	nop
   84934:	d503201f 	nop
   84938:	d503201f 	nop
   8493c:	d503201f 	nop
   84940:	d503201f 	nop
   84944:	d503201f 	nop
   84948:	d503201f 	nop
   8494c:	d503201f 	nop
   84950:	d503201f 	nop
   84954:	d503201f 	nop
   84958:	d503201f 	nop
   8495c:	d503201f 	nop
   84960:	d503201f 	nop
   84964:	d503201f 	nop
   84968:	d503201f 	nop
   8496c:	d503201f 	nop
   84970:	d503201f 	nop
   84974:	d503201f 	nop
   84978:	d503201f 	nop
   8497c:	d503201f 	nop

0000000000084980 <.EXC_CURREL_SP0_SErr>:
   84980:	d10043ff 	sub	sp, sp, #0x10
   84984:	a9007be0 	stp	x0, x30, [sp]
   84988:	d2800080 	mov	x0, #0x4                   	// #4
   8498c:	97fffd9f 	bl	84008 <__exception_trampoline>
   84990:	a9407be0 	ldp	x0, x30, [sp]
   84994:	910043ff 	add	sp, sp, #0x10
   84998:	d69f03e0 	eret
   8499c:	d503201f 	nop
   849a0:	d503201f 	nop
   849a4:	d503201f 	nop
   849a8:	d503201f 	nop
   849ac:	d503201f 	nop
   849b0:	d503201f 	nop
   849b4:	d503201f 	nop
   849b8:	d503201f 	nop
   849bc:	d503201f 	nop
   849c0:	d503201f 	nop
   849c4:	d503201f 	nop
   849c8:	d503201f 	nop
   849cc:	d503201f 	nop
   849d0:	d503201f 	nop
   849d4:	d503201f 	nop
   849d8:	d503201f 	nop
   849dc:	d503201f 	nop
   849e0:	d503201f 	nop
   849e4:	d503201f 	nop
   849e8:	d503201f 	nop
   849ec:	d503201f 	nop
   849f0:	d503201f 	nop
   849f4:	d503201f 	nop
   849f8:	d503201f 	nop
   849fc:	d503201f 	nop

0000000000084a00 <.EXC_CURREL_SPX_Sync>:
   84a00:	d10043ff 	sub	sp, sp, #0x10
   84a04:	a9007be0 	stp	x0, x30, [sp]
   84a08:	d2800220 	mov	x0, #0x11                  	// #17
   84a0c:	97fffd7f 	bl	84008 <__exception_trampoline>
   84a10:	a9407be0 	ldp	x0, x30, [sp]
   84a14:	910043ff 	add	sp, sp, #0x10
   84a18:	d69f03e0 	eret
   84a1c:	d503201f 	nop
   84a20:	d503201f 	nop
   84a24:	d503201f 	nop
   84a28:	d503201f 	nop
   84a2c:	d503201f 	nop
   84a30:	d503201f 	nop
   84a34:	d503201f 	nop
   84a38:	d503201f 	nop
   84a3c:	d503201f 	nop
   84a40:	d503201f 	nop
   84a44:	d503201f 	nop
   84a48:	d503201f 	nop
   84a4c:	d503201f 	nop
   84a50:	d503201f 	nop
   84a54:	d503201f 	nop
   84a58:	d503201f 	nop
   84a5c:	d503201f 	nop
   84a60:	d503201f 	nop
   84a64:	d503201f 	nop
   84a68:	d503201f 	nop
   84a6c:	d503201f 	nop
   84a70:	d503201f 	nop
   84a74:	d503201f 	nop
   84a78:	d503201f 	nop
   84a7c:	d503201f 	nop

0000000000084a80 <.EXC_CURREL_SPX_Irq>:
   84a80:	d10043ff 	sub	sp, sp, #0x10
   84a84:	a9007be0 	stp	x0, x30, [sp]
   84a88:	d2800240 	mov	x0, #0x12                  	// #18
   84a8c:	97fffd5f 	bl	84008 <__exception_trampoline>
   84a90:	a9407be0 	ldp	x0, x30, [sp]
   84a94:	910043ff 	add	sp, sp, #0x10
   84a98:	d69f03e0 	eret
   84a9c:	d503201f 	nop
   84aa0:	d503201f 	nop
   84aa4:	d503201f 	nop
   84aa8:	d503201f 	nop
   84aac:	d503201f 	nop
   84ab0:	d503201f 	nop
   84ab4:	d503201f 	nop
   84ab8:	d503201f 	nop
   84abc:	d503201f 	nop
   84ac0:	d503201f 	nop
   84ac4:	d503201f 	nop
   84ac8:	d503201f 	nop
   84acc:	d503201f 	nop
   84ad0:	d503201f 	nop
   84ad4:	d503201f 	nop
   84ad8:	d503201f 	nop
   84adc:	d503201f 	nop
   84ae0:	d503201f 	nop
   84ae4:	d503201f 	nop
   84ae8:	d503201f 	nop
   84aec:	d503201f 	nop
   84af0:	d503201f 	nop
   84af4:	d503201f 	nop
   84af8:	d503201f 	nop
   84afc:	d503201f 	nop

0000000000084b00 <.EXC_CURREL_SPX_Fiq>:
   84b00:	d10043ff 	sub	sp, sp, #0x10
   84b04:	a9007be0 	stp	x0, x30, [sp]
   84b08:	d2800260 	mov	x0, #0x13                  	// #19
   84b0c:	97fffd3f 	bl	84008 <__exception_trampoline>
   84b10:	a9407be0 	ldp	x0, x30, [sp]
   84b14:	910043ff 	add	sp, sp, #0x10
   84b18:	d69f03e0 	eret
   84b1c:	d503201f 	nop
   84b20:	d503201f 	nop
   84b24:	d503201f 	nop
   84b28:	d503201f 	nop
   84b2c:	d503201f 	nop
   84b30:	d503201f 	nop
   84b34:	d503201f 	nop
   84b38:	d503201f 	nop
   84b3c:	d503201f 	nop
   84b40:	d503201f 	nop
   84b44:	d503201f 	nop
   84b48:	d503201f 	nop
   84b4c:	d503201f 	nop
   84b50:	d503201f 	nop
   84b54:	d503201f 	nop
   84b58:	d503201f 	nop
   84b5c:	d503201f 	nop
   84b60:	d503201f 	nop
   84b64:	d503201f 	nop
   84b68:	d503201f 	nop
   84b6c:	d503201f 	nop
   84b70:	d503201f 	nop
   84b74:	d503201f 	nop
   84b78:	d503201f 	nop
   84b7c:	d503201f 	nop

0000000000084b80 <.EXC_CURREL_SPX_SErr>:
   84b80:	d10043ff 	sub	sp, sp, #0x10
   84b84:	a9007be0 	stp	x0, x30, [sp]
   84b88:	d2800280 	mov	x0, #0x14                  	// #20
   84b8c:	97fffd1f 	bl	84008 <__exception_trampoline>
   84b90:	a9407be0 	ldp	x0, x30, [sp]
   84b94:	910043ff 	add	sp, sp, #0x10
   84b98:	d69f03e0 	eret
   84b9c:	d503201f 	nop
   84ba0:	d503201f 	nop
   84ba4:	d503201f 	nop
   84ba8:	d503201f 	nop
   84bac:	d503201f 	nop
   84bb0:	d503201f 	nop
   84bb4:	d503201f 	nop
   84bb8:	d503201f 	nop
   84bbc:	d503201f 	nop
   84bc0:	d503201f 	nop
   84bc4:	d503201f 	nop
   84bc8:	d503201f 	nop
   84bcc:	d503201f 	nop
   84bd0:	d503201f 	nop
   84bd4:	d503201f 	nop
   84bd8:	d503201f 	nop
   84bdc:	d503201f 	nop
   84be0:	d503201f 	nop
   84be4:	d503201f 	nop
   84be8:	d503201f 	nop
   84bec:	d503201f 	nop
   84bf0:	d503201f 	nop
   84bf4:	d503201f 	nop
   84bf8:	d503201f 	nop
   84bfc:	d503201f 	nop

0000000000084c00 <.EXC_LOWEREL64_SPX_Sync>:
   84c00:	d10043ff 	sub	sp, sp, #0x10
   84c04:	a9007be0 	stp	x0, x30, [sp]
   84c08:	d2800420 	mov	x0, #0x21                  	// #33
   84c0c:	97fffcff 	bl	84008 <__exception_trampoline>
   84c10:	a9407be0 	ldp	x0, x30, [sp]
   84c14:	910043ff 	add	sp, sp, #0x10
   84c18:	d69f03e0 	eret
   84c1c:	d503201f 	nop
   84c20:	d503201f 	nop
   84c24:	d503201f 	nop
   84c28:	d503201f 	nop
   84c2c:	d503201f 	nop
   84c30:	d503201f 	nop
   84c34:	d503201f 	nop
   84c38:	d503201f 	nop
   84c3c:	d503201f 	nop
   84c40:	d503201f 	nop
   84c44:	d503201f 	nop
   84c48:	d503201f 	nop
   84c4c:	d503201f 	nop
   84c50:	d503201f 	nop
   84c54:	d503201f 	nop
   84c58:	d503201f 	nop
   84c5c:	d503201f 	nop
   84c60:	d503201f 	nop
   84c64:	d503201f 	nop
   84c68:	d503201f 	nop
   84c6c:	d503201f 	nop
   84c70:	d503201f 	nop
   84c74:	d503201f 	nop
   84c78:	d503201f 	nop
   84c7c:	d503201f 	nop

0000000000084c80 <.EXC_LOWEREL64_SPX_Irq>:
   84c80:	d10043ff 	sub	sp, sp, #0x10
   84c84:	a9007be0 	stp	x0, x30, [sp]
   84c88:	d2800440 	mov	x0, #0x22                  	// #34
   84c8c:	97fffcdf 	bl	84008 <__exception_trampoline>
   84c90:	a9407be0 	ldp	x0, x30, [sp]
   84c94:	910043ff 	add	sp, sp, #0x10
   84c98:	d69f03e0 	eret
   84c9c:	d503201f 	nop
   84ca0:	d503201f 	nop
   84ca4:	d503201f 	nop
   84ca8:	d503201f 	nop
   84cac:	d503201f 	nop
   84cb0:	d503201f 	nop
   84cb4:	d503201f 	nop
   84cb8:	d503201f 	nop
   84cbc:	d503201f 	nop
   84cc0:	d503201f 	nop
   84cc4:	d503201f 	nop
   84cc8:	d503201f 	nop
   84ccc:	d503201f 	nop
   84cd0:	d503201f 	nop
   84cd4:	d503201f 	nop
   84cd8:	d503201f 	nop
   84cdc:	d503201f 	nop
   84ce0:	d503201f 	nop
   84ce4:	d503201f 	nop
   84ce8:	d503201f 	nop
   84cec:	d503201f 	nop
   84cf0:	d503201f 	nop
   84cf4:	d503201f 	nop
   84cf8:	d503201f 	nop
   84cfc:	d503201f 	nop

0000000000084d00 <.EXC_LOWEREL64_SPX_Fiq>:
   84d00:	d10043ff 	sub	sp, sp, #0x10
   84d04:	a9007be0 	stp	x0, x30, [sp]
   84d08:	d2800460 	mov	x0, #0x23                  	// #35
   84d0c:	97fffcbf 	bl	84008 <__exception_trampoline>
   84d10:	a9407be0 	ldp	x0, x30, [sp]
   84d14:	910043ff 	add	sp, sp, #0x10
   84d18:	d69f03e0 	eret
   84d1c:	d503201f 	nop
   84d20:	d503201f 	nop
   84d24:	d503201f 	nop
   84d28:	d503201f 	nop
   84d2c:	d503201f 	nop
   84d30:	d503201f 	nop
   84d34:	d503201f 	nop
   84d38:	d503201f 	nop
   84d3c:	d503201f 	nop
   84d40:	d503201f 	nop
   84d44:	d503201f 	nop
   84d48:	d503201f 	nop
   84d4c:	d503201f 	nop
   84d50:	d503201f 	nop
   84d54:	d503201f 	nop
   84d58:	d503201f 	nop
   84d5c:	d503201f 	nop
   84d60:	d503201f 	nop
   84d64:	d503201f 	nop
   84d68:	d503201f 	nop
   84d6c:	d503201f 	nop
   84d70:	d503201f 	nop
   84d74:	d503201f 	nop
   84d78:	d503201f 	nop
   84d7c:	d503201f 	nop

0000000000084d80 <.EXC_LOWEREL64_SPX_SErr>:
   84d80:	d10043ff 	sub	sp, sp, #0x10
   84d84:	a9007be0 	stp	x0, x30, [sp]
   84d88:	d2800480 	mov	x0, #0x24                  	// #36
   84d8c:	97fffc9f 	bl	84008 <__exception_trampoline>
   84d90:	a9407be0 	ldp	x0, x30, [sp]
   84d94:	910043ff 	add	sp, sp, #0x10
   84d98:	d69f03e0 	eret
   84d9c:	d503201f 	nop
   84da0:	d503201f 	nop
   84da4:	d503201f 	nop
   84da8:	d503201f 	nop
   84dac:	d503201f 	nop
   84db0:	d503201f 	nop
   84db4:	d503201f 	nop
   84db8:	d503201f 	nop
   84dbc:	d503201f 	nop
   84dc0:	d503201f 	nop
   84dc4:	d503201f 	nop
   84dc8:	d503201f 	nop
   84dcc:	d503201f 	nop
   84dd0:	d503201f 	nop
   84dd4:	d503201f 	nop
   84dd8:	d503201f 	nop
   84ddc:	d503201f 	nop
   84de0:	d503201f 	nop
   84de4:	d503201f 	nop
   84de8:	d503201f 	nop
   84dec:	d503201f 	nop
   84df0:	d503201f 	nop
   84df4:	d503201f 	nop
   84df8:	d503201f 	nop
   84dfc:	d503201f 	nop

0000000000084e00 <.EXC_LOWEREL32_SPX_Sync>:
   84e00:	d10043ff 	sub	sp, sp, #0x10
   84e04:	a9007be0 	stp	x0, x30, [sp]
   84e08:	d2800620 	mov	x0, #0x31                  	// #49
   84e0c:	97fffc7f 	bl	84008 <__exception_trampoline>
   84e10:	a9407be0 	ldp	x0, x30, [sp]
   84e14:	910043ff 	add	sp, sp, #0x10
   84e18:	d69f03e0 	eret
   84e1c:	d503201f 	nop
   84e20:	d503201f 	nop
   84e24:	d503201f 	nop
   84e28:	d503201f 	nop
   84e2c:	d503201f 	nop
   84e30:	d503201f 	nop
   84e34:	d503201f 	nop
   84e38:	d503201f 	nop
   84e3c:	d503201f 	nop
   84e40:	d503201f 	nop
   84e44:	d503201f 	nop
   84e48:	d503201f 	nop
   84e4c:	d503201f 	nop
   84e50:	d503201f 	nop
   84e54:	d503201f 	nop
   84e58:	d503201f 	nop
   84e5c:	d503201f 	nop
   84e60:	d503201f 	nop
   84e64:	d503201f 	nop
   84e68:	d503201f 	nop
   84e6c:	d503201f 	nop
   84e70:	d503201f 	nop
   84e74:	d503201f 	nop
   84e78:	d503201f 	nop
   84e7c:	d503201f 	nop

0000000000084e80 <.EXC_LOWEREL32_SPX_Irq>:
   84e80:	d10043ff 	sub	sp, sp, #0x10
   84e84:	a9007be0 	stp	x0, x30, [sp]
   84e88:	d2800640 	mov	x0, #0x32                  	// #50
   84e8c:	97fffc5f 	bl	84008 <__exception_trampoline>
   84e90:	a9407be0 	ldp	x0, x30, [sp]
   84e94:	910043ff 	add	sp, sp, #0x10
   84e98:	d69f03e0 	eret
   84e9c:	d503201f 	nop
   84ea0:	d503201f 	nop
   84ea4:	d503201f 	nop
   84ea8:	d503201f 	nop
   84eac:	d503201f 	nop
   84eb0:	d503201f 	nop
   84eb4:	d503201f 	nop
   84eb8:	d503201f 	nop
   84ebc:	d503201f 	nop
   84ec0:	d503201f 	nop
   84ec4:	d503201f 	nop
   84ec8:	d503201f 	nop
   84ecc:	d503201f 	nop
   84ed0:	d503201f 	nop
   84ed4:	d503201f 	nop
   84ed8:	d503201f 	nop
   84edc:	d503201f 	nop
   84ee0:	d503201f 	nop
   84ee4:	d503201f 	nop
   84ee8:	d503201f 	nop
   84eec:	d503201f 	nop
   84ef0:	d503201f 	nop
   84ef4:	d503201f 	nop
   84ef8:	d503201f 	nop
   84efc:	d503201f 	nop

0000000000084f00 <.EXC_LOWEREL32_SPX_Fiq>:
   84f00:	d10043ff 	sub	sp, sp, #0x10
   84f04:	a9007be0 	stp	x0, x30, [sp]
   84f08:	d2800660 	mov	x0, #0x33                  	// #51
   84f0c:	97fffc3f 	bl	84008 <__exception_trampoline>
   84f10:	a9407be0 	ldp	x0, x30, [sp]
   84f14:	910043ff 	add	sp, sp, #0x10
   84f18:	d69f03e0 	eret
   84f1c:	d503201f 	nop
   84f20:	d503201f 	nop
   84f24:	d503201f 	nop
   84f28:	d503201f 	nop
   84f2c:	d503201f 	nop
   84f30:	d503201f 	nop
   84f34:	d503201f 	nop
   84f38:	d503201f 	nop
   84f3c:	d503201f 	nop
   84f40:	d503201f 	nop
   84f44:	d503201f 	nop
   84f48:	d503201f 	nop
   84f4c:	d503201f 	nop
   84f50:	d503201f 	nop
   84f54:	d503201f 	nop
   84f58:	d503201f 	nop
   84f5c:	d503201f 	nop
   84f60:	d503201f 	nop
   84f64:	d503201f 	nop
   84f68:	d503201f 	nop
   84f6c:	d503201f 	nop
   84f70:	d503201f 	nop
   84f74:	d503201f 	nop
   84f78:	d503201f 	nop
   84f7c:	d503201f 	nop

0000000000084f80 <.EXC_LOWEREL32_SPX_SErr>:
   84f80:	d10043ff 	sub	sp, sp, #0x10
   84f84:	a9007be0 	stp	x0, x30, [sp]
   84f88:	d2800680 	mov	x0, #0x34                  	// #52
   84f8c:	97fffc1f 	bl	84008 <__exception_trampoline>
   84f90:	a9407be0 	ldp	x0, x30, [sp]
   84f94:	910043ff 	add	sp, sp, #0x10
   84f98:	d69f03e0 	eret
   84f9c:	d503201f 	nop
   84fa0:	d503201f 	nop
   84fa4:	d503201f 	nop
   84fa8:	d503201f 	nop
   84fac:	d503201f 	nop
   84fb0:	d503201f 	nop
   84fb4:	d503201f 	nop
   84fb8:	d503201f 	nop
   84fbc:	d503201f 	nop
   84fc0:	d503201f 	nop
   84fc4:	d503201f 	nop
   84fc8:	d503201f 	nop
   84fcc:	d503201f 	nop
   84fd0:	d503201f 	nop
   84fd4:	d503201f 	nop
   84fd8:	d503201f 	nop
   84fdc:	d503201f 	nop
   84fe0:	d503201f 	nop
   84fe4:	d503201f 	nop
   84fe8:	d503201f 	nop
   84fec:	d503201f 	nop
   84ff0:	d503201f 	nop
   84ff4:	d503201f 	nop
   84ff8:	d503201f 	nop
   84ffc:	d503201f 	nop

0000000000085000 <_ZN4core3ptr18real_drop_in_place17hbbd74dd63f0ead4fE>:
   85000:	f9400401 	ldr	x1, [x0, #8]
   85004:	b4000081 	cbz	x1, 85014 <_ZN4core3ptr18real_drop_in_place17hbbd74dd63f0ead4fE+0x14>
   85008:	f9400000 	ldr	x0, [x0]
   8500c:	52800022 	mov	w2, #0x1                   	// #1
   85010:	17fff35a 	b	81d78 <__rust_dealloc>
   85014:	d65f03c0 	ret

0000000000085018 <_ZN4core3ptr18real_drop_in_place17hefe1a65893d74b55E>:
   85018:	14000198 	b	85678 <_ZN68_$LT$ruspiro_uart..uart1..Uart1$u20$as$u20$core..ops..drop..Drop$GT$4drop17h1242b4c97eb5cdc4E>
   8501c:	00000000 	.inst	0x00000000 ; undefined

0000000000085020 <_ZN60_$LT$alloc..string..String$u20$as$u20$core..fmt..Display$GT$3fmt17he9b65cb3b2e3446eE>:
   85020:	f9400008 	ldr	x8, [x0]
   85024:	aa0103e2 	mov	x2, x1
   85028:	f9400809 	ldr	x9, [x0, #16]
   8502c:	aa0803e0 	mov	x0, x8
   85030:	aa0903e1 	mov	x1, x9
   85034:	14001287 	b	89a50 <_ZN42_$LT$str$u20$as$u20$core..fmt..Display$GT$3fmt17h5a9de3cd403484d2E>

0000000000085038 <__rust_entry>:
   85038:	d10243ff 	sub	sp, sp, #0x90
   8503c:	f9003bf4 	str	x20, [sp, #112]
   85040:	a9087bf3 	stp	x19, x30, [sp, #128]
   85044:	2a0003f3 	mov	w19, w0
   85048:	940000be 	bl	85340 <_ZN12ruspiro_boot3mmu14initialize_mmu17hfad4f60de6fc185dE>
   8504c:	35000a73 	cbnz	w19, 85198 <__rust_entry+0x160>
   85050:	b0000054 	adrp	x20, 8e000 <_ZN4core3fmt3num14DEC_DIGITS_LUT17h46bba502bada2534E+0x1c0>
   85054:	f9445694 	ldr	x20, [x20, #2216]
   85058:	aa1403e0 	mov	x0, x20
   8505c:	9400089f 	bl	872d8 <_ZN12ruspiro_lock8spinlock8Spinlock6aquire17h93e053530659f177E>
   85060:	910103e8 	add	x8, sp, #0x40
   85064:	aa1403e0 	mov	x0, x20
   85068:	52800081 	mov	w1, #0x4                   	// #4
   8506c:	9400073f 	bl	86d68 <_ZN15ruspiro_mailbox7Mailbox13get_clockrate17hecd0f87f51b53591E>
   85070:	aa1403e0 	mov	x0, x20
   85074:	940008a3 	bl	87300 <_ZN12ruspiro_lock8spinlock8Spinlock7release17h540c080833faeca3E>
   85078:	294827e8 	ldp	w8, w9, [sp, #64]
   8507c:	7100051f 	cmp	w8, #0x1
   85080:	52965008 	mov	w8, #0xb280                	// #45696
   85084:	72a1dcc8 	movk	w8, #0xee6, lsl #16
   85088:	1a890114 	csel	w20, w8, w9, eq  // eq = none
   8508c:	94000143 	bl	85598 <_ZN12ruspiro_uart5uart15Uart13new17h45a93afce8267938E>
   85090:	3901f3e0 	strb	w0, [sp, #124]
   85094:	52984002 	mov	w2, #0xc200                	// #49664
   85098:	9101f3e0 	add	x0, sp, #0x7c
   8509c:	72a00022 	movk	w2, #0x1, lsl #16
   850a0:	2a1403e1 	mov	w1, w20
   850a4:	9400013f 	bl	855a0 <_ZN12ruspiro_uart5uart15Uart110initialize17h4219467896ec5bbfE>
   850a8:	3941f3e1 	ldrb	w1, [sp, #124]
   850ac:	b0000040 	adrp	x0, 8e000 <_ZN4core3fmt3num14DEC_DIGITS_LUT17h46bba502bada2534E+0x1c0>
   850b0:	f9446400 	ldr	x0, [x0, #2248]
   850b4:	9400006d 	bl	85268 <_ZN17ruspiro_singleton18Singleton$LT$T$GT$8take_for17h32af2f23f622b306E>
   850b8:	90000048 	adrp	x8, 8d000 <GCC_except_table3+0xa5c>
   850bc:	52800029 	mov	w9, #0x1                   	// #1
   850c0:	912da108 	add	x8, x8, #0xb68
   850c4:	5280010a 	mov	w10, #0x8                   	// #8
   850c8:	a9057fff 	stp	xzr, xzr, [sp, #80]
   850cc:	a90427e8 	stp	x8, x9, [sp, #64]
   850d0:	a9067fea 	stp	x10, xzr, [sp, #96]
   850d4:	9100a3e8 	add	x8, sp, #0x28
   850d8:	910103e0 	add	x0, sp, #0x40
   850dc:	940008d3 	bl	87428 <_ZN5alloc3fmt6format17hafdd08834ed4019dE>
   850e0:	a942a3e9 	ldp	x9, x8, [sp, #40]
   850e4:	f9401fea 	ldr	x10, [sp, #56]
   850e8:	a9057fff 	stp	xzr, xzr, [sp, #80]
   850ec:	a90123e9 	stp	x9, x8, [sp, #16]
   850f0:	90000009 	adrp	x9, 85000 <_ZN4core3ptr18real_drop_in_place17hbbd74dd63f0ead4fE>
   850f4:	910043e8 	add	x8, sp, #0x10
   850f8:	91008129 	add	x9, x9, #0x20
   850fc:	f90013ea 	str	x10, [sp, #32]
   85100:	5280004a 	mov	w10, #0x2                   	// #2
   85104:	a90027e8 	stp	x8, x9, [sp]
   85108:	90000048 	adrp	x8, 8d000 <GCC_except_table3+0xa5c>
   8510c:	912d2108 	add	x8, x8, #0xb48
   85110:	910003e9 	mov	x9, sp
   85114:	a9042be8 	stp	x8, x10, [sp, #64]
   85118:	52800028 	mov	w8, #0x1                   	// #1
   8511c:	a90623e9 	stp	x9, x8, [sp, #96]
   85120:	9100a3e8 	add	x8, sp, #0x28
   85124:	910103e0 	add	x0, sp, #0x40
   85128:	940008c0 	bl	87428 <_ZN5alloc3fmt6format17hafdd08834ed4019dE>
   8512c:	f9400fe1 	ldr	x1, [sp, #24]
   85130:	b4000081 	cbz	x1, 85140 <__rust_entry+0x108>
   85134:	f9400be0 	ldr	x0, [sp, #16]
   85138:	52800022 	mov	w2, #0x1                   	// #1
   8513c:	97fff30f 	bl	81d78 <__rust_dealloc>
   85140:	a942a3f4 	ldp	x20, x8, [sp, #40]
   85144:	f9401fe1 	ldr	x1, [sp, #56]
   85148:	a90423f4 	stp	x20, x8, [sp, #64]
   8514c:	f9002be1 	str	x1, [sp, #80]
   85150:	aa1403e0 	mov	x0, x20
   85154:	9400084b 	bl	87280 <_ZN15ruspiro_console5print17h057cac26d371b76dE>
   85158:	f94027e1 	ldr	x1, [sp, #72]
   8515c:	b4000081 	cbz	x1, 8516c <__rust_entry+0x134>
   85160:	aa1403e0 	mov	x0, x20
   85164:	52800022 	mov	w2, #0x1                   	// #1
   85168:	97fff304 	bl	81d78 <__rust_dealloc>
   8516c:	5284e200 	mov	w0, #0x2710                	// #10000
   85170:	940002da 	bl	85cd8 <_ZN13ruspiro_timer5sleep17h2196643d932a9abdE>
   85174:	b0000054 	adrp	x20, 8e000 <_ZN4core3fmt3num14DEC_DIGITS_LUT17h46bba502bada2534E+0x1c0>
   85178:	f9447694 	ldr	x20, [x20, #2280]
   8517c:	aa1403e0 	mov	x0, x20
   85180:	94000856 	bl	872d8 <_ZN12ruspiro_lock8spinlock8Spinlock6aquire17h93e053530659f177E>
   85184:	91004280 	add	x0, x20, #0x10
   85188:	940005a8 	bl	86828 <_ZN17ruspiro_interrupt16InterruptManager10initialize17hb5cc1913d9bcbf35E>
   8518c:	b0000040 	adrp	x0, 8e000 <_ZN4core3fmt3num14DEC_DIGITS_LUT17h46bba502bada2534E+0x1c0>
   85190:	f9447400 	ldr	x0, [x0, #2280]
   85194:	9400085b 	bl	87300 <_ZN12ruspiro_lock8spinlock8Spinlock7release17h540c080833faeca3E>
   85198:	2a1303e0 	mov	w0, w19
   8519c:	97fff52d 	bl	82650 <__kernel_startup>
   851a0:	2a1303e0 	mov	w0, w19
   851a4:	97fff575 	bl	82778 <__kernel_run>
   851a8:	d4200020 	brk	#0x1
   851ac:	aa0003f3 	mov	x19, x0
   851b0:	aa1303e0 	mov	x0, x19
   851b4:	97fffacf 	bl	83cf0 <_Unwind_Resume>
   851b8:	d4200020 	brk	#0x1
   851bc:	aa0003f3 	mov	x19, x0
   851c0:	aa1303e0 	mov	x0, x19
   851c4:	97fffacb 	bl	83cf0 <_Unwind_Resume>
   851c8:	d4200020 	brk	#0x1
   851cc:	aa0003f3 	mov	x19, x0
   851d0:	aa1303e0 	mov	x0, x19
   851d4:	97fffac7 	bl	83cf0 <_Unwind_Resume>
   851d8:	d4200020 	brk	#0x1
   851dc:	aa0003f3 	mov	x19, x0
   851e0:	910103e0 	add	x0, sp, #0x40
   851e4:	97ffff87 	bl	85000 <_ZN4core3ptr18real_drop_in_place17hbbd74dd63f0ead4fE>
   851e8:	aa1303e0 	mov	x0, x19
   851ec:	97fffac1 	bl	83cf0 <_Unwind_Resume>
   851f0:	d4200020 	brk	#0x1
   851f4:	aa0003f3 	mov	x19, x0
   851f8:	910043e0 	add	x0, sp, #0x10
   851fc:	97ffff81 	bl	85000 <_ZN4core3ptr18real_drop_in_place17hbbd74dd63f0ead4fE>
   85200:	aa1303e0 	mov	x0, x19
   85204:	97fffabb 	bl	83cf0 <_Unwind_Resume>
   85208:	d4200020 	brk	#0x1
   8520c:	aa0003f3 	mov	x19, x0
   85210:	9101f3e0 	add	x0, sp, #0x7c
   85214:	97ffff81 	bl	85018 <_ZN4core3ptr18real_drop_in_place17hefe1a65893d74b55E>
   85218:	aa1303e0 	mov	x0, x19
   8521c:	97fffab5 	bl	83cf0 <_Unwind_Resume>
   85220:	d4200020 	brk	#0x1
   85224:	aa0003f3 	mov	x19, x0
   85228:	aa1303e0 	mov	x0, x19
   8522c:	97fffab1 	bl	83cf0 <_Unwind_Resume>
   85230:	d4200020 	brk	#0x1
   85234:	00000000 	.inst	0x00000000 ; undefined

0000000000085238 <_ZN42_$LT$$RF$T$u20$as$u20$core..fmt..Debug$GT$3fmt17h2f7903c260693ba6E>:
   85238:	a9402408 	ldp	x8, x9, [x0]
   8523c:	aa0103e2 	mov	x2, x1
   85240:	aa0803e0 	mov	x0, x8
   85244:	aa0903e1 	mov	x1, x9
   85248:	140010ae 	b	89500 <_ZN40_$LT$str$u20$as$u20$core..fmt..Debug$GT$3fmt17h04dd3c8427bc5502E>
   8524c:	00000000 	.inst	0x00000000 ; undefined

0000000000085250 <_ZN44_$LT$$RF$T$u20$as$u20$core..fmt..Display$GT$3fmt17h7ec832f20bf83763E>:
   85250:	a9402408 	ldp	x8, x9, [x0]
   85254:	aa0103e2 	mov	x2, x1
   85258:	aa0803e0 	mov	x0, x8
   8525c:	aa0903e1 	mov	x1, x9
   85260:	140011fc 	b	89a50 <_ZN42_$LT$str$u20$as$u20$core..fmt..Display$GT$3fmt17h5a9de3cd403484d2E>
   85264:	00000000 	.inst	0x00000000 ; undefined

0000000000085268 <_ZN17ruspiro_singleton18Singleton$LT$T$GT$8take_for17h32af2f23f622b306E>:
   85268:	d100c3ff 	sub	sp, sp, #0x30
   8526c:	a90153f5 	stp	x21, x20, [sp, #16]
   85270:	a9027bf3 	stp	x19, x30, [sp, #32]
   85274:	aa0003f3 	mov	x19, x0
   85278:	390033e1 	strb	w1, [sp, #12]
   8527c:	94000817 	bl	872d8 <_ZN12ruspiro_lock8spinlock8Spinlock6aquire17h93e053530659f177E>
   85280:	394033f4 	ldrb	w20, [sp, #12]
   85284:	52800020 	mov	w0, #0x1                   	// #1
   85288:	52800021 	mov	w1, #0x1                   	// #1
   8528c:	97fff2b7 	bl	81d68 <__rust_alloc>
   85290:	b40002a0 	cbz	x0, 852e4 <_ZN17ruspiro_singleton18Singleton$LT$T$GT$8take_for17h32af2f23f622b306E+0x7c>
   85294:	39000014 	strb	w20, [x0]
   85298:	90000048 	adrp	x8, 8d000 <GCC_except_table3+0xa5c>
   8529c:	a9415674 	ldp	x20, x21, [x19, #16]
   852a0:	912ea108 	add	x8, x8, #0xba8
   852a4:	a9012260 	stp	x0, x8, [x19, #16]
   852a8:	b4000134 	cbz	x20, 852cc <_ZN17ruspiro_singleton18Singleton$LT$T$GT$8take_for17h32af2f23f622b306E+0x64>
   852ac:	f94002a8 	ldr	x8, [x21]
   852b0:	aa1403e0 	mov	x0, x20
   852b4:	d63f0100 	blr	x8
   852b8:	f94006a1 	ldr	x1, [x21, #8]
   852bc:	b4000081 	cbz	x1, 852cc <_ZN17ruspiro_singleton18Singleton$LT$T$GT$8take_for17h32af2f23f622b306E+0x64>
   852c0:	f9400aa2 	ldr	x2, [x21, #16]
   852c4:	aa1403e0 	mov	x0, x20
   852c8:	97fff2ac 	bl	81d78 <__rust_dealloc>
   852cc:	aa1303e0 	mov	x0, x19
   852d0:	9400080c 	bl	87300 <_ZN12ruspiro_lock8spinlock8Spinlock7release17h540c080833faeca3E>
   852d4:	a9427bf3 	ldp	x19, x30, [sp, #32]
   852d8:	a94153f5 	ldp	x21, x20, [sp, #16]
   852dc:	9100c3ff 	add	sp, sp, #0x30
   852e0:	d65f03c0 	ret
