----------------
----------------
IN: 
IN: 
----------------
0x00000300: IN: 
 d2801b050x00000300:   movz     x5, #0xd8
 d2801b05
  movz     x5, #0xd8
----------------

IN: 
----------------
----------------
IN: 
0x00000000: 0x00000300: 0x00000304:  d2801b05IN: 
 d53800a60x00000304:   mrs      x6, mpidr_el1

 580000c0----------------
  ldr      x0, #0x18

  movz     x5, #0xd8

 d53800a6----------------
IN: 
----------------
0x00000308:   mrs      x6, mpidr_el1

IN: 
----------------
0x00000308: IN: 
 924004c6 924004c60x00000308: IN: 
 924004c6  and      x6, x6, #3

  and      x6, x6, #3

----------------
0x00000004: IN: 
  and      x6, x6, #3
0x0000030c: 
----------------
----------------
 aa1f03e1IN: 
  mov      x1, xzr
 d503205f
  wfe      
IN: 
----------------
0x0000030c: IN: 
 d503205f
  wfe      
0x0000030c: 
 d503205f----------------
  wfe      
IN: 
0x00000008: ----------------
 aa1f03e2IN: 
  mov      x2, xzr
0x00000310: 
0x00000310:  f86678a4 f86678a4----------------
  ldr      x4, [x5, x6, lsl #3]

  ldr      x4, [x5, x6, lsl #3]


----------------
----------------
IN: 
----------------
0x00000314: IN: 
 b4ffffc40x0000000c: IN: 
 aa1f03e30x00000314: IN: 
  mov      x3, xzr
0x00000314:   cbz      x4, #0x30c

 b4ffffc4  cbz      x4, #0x30c


 b4ffffc4----------------
  cbz      x4, #0x30c

IN: 
0x00000010:  58000084  ldr      x4, #0x20

----------------
IN: 
0x00000014:  d61f0080  br       x4

----------------
IN: 
0x00080000:  d53800a0  mrs      x0, mpidr_el1

----------------
IN: 
0x00080004:  92400400  and      x0, x0, #3

----------------
IN: 
0x00080008:  58000701  ldr      x1, #0x800e8

----------------
IN: 
0x0008000c:  58000722  ldr      x2, #0x800f0

----------------
IN: 
0x00080010:  eb020021  subs     x1, x1, x2

----------------
IN: 
0x00080014:  9b007c22  mul      x2, x1, x0

----------------
IN: 
0x00080018:  58000701  ldr      x1, #0x800f8

----------------
IN: 
0x0008001c:  cb22603f  sub      sp, x1, x2

----------------
IN: 
0x00080020:  b5000120  cbnz     x0, #0x80044

----------------
IN: 
0x00080024:  580006e0  ldr      x0, #0x80100

----------------
IN: 
0x00080028:  58000702  ldr      x2, #0x80108

----------------
IN: 
0x0008002c:  cb000042  sub      x2, x2, x0

----------------
IN: 
0x00080030:  d344fc42  lsr      x2, x2, #4

----------------
IN: 
0x00080034:  b4000082  cbz      x2, #0x80044

----------------
IN: 
0x00080038:  a8817c1f  stp      xzr, xzr, [x0], #0x10

----------------
IN: 
0x0008003c:  d1000442  sub      x2, x2, #1

----------------
IN: 
0x00080040:  b5ffffc2  cbnz     x2, #0x80038

----------------
IN: 
0x00080044:  9400000b  bl       #0x80070

----------------
IN: 
0x00080070:  d5384240  mrs      x0, currentel

----------------
IN: 
0x00080074:  f100101f  cmp      x0, #4

----------------
IN: 
0x00080078:  54000240  b.eq     #0x800c0

----------------
IN: 
0x0008007c:  d518101f  msr      sctlr_el1, xzr

----------------
IN: 
0x00080080:  d2b00000  movz     x0, #0x8000, lsl #16

----------------
IN: 
0x00080084:  b27f0000  orr      x0, x0, #2

----------------
IN: 
0x00080088:  d51c1100  msr      hcr_el2, x0

----------------
IN: 
0x0008008c:  d53c1100  mrs      x0, hcr_el2

----------------
IN: 
0x00080090:  d53ce102  mrs      x2, cnthctl_el2

----------------
IN: 
0x00080094:  b2400442  orr      x2, x2, #3

----------------
IN: 
0x00080098:  d51ce102  msr      cnthctl_el2, x2

----------------
IN: 
0x0008009c:  d51ce07f  msr      cntvoff_el2, xzr

----------------
IN: 
0x000800a0:  d28078a2  movz     x2, #0x3c5

----------------
IN: 
0x000800a4:  d51c4002  msr      spsr_el2, x2

----------------
IN: 
0x000800a8:  d53c1100  mrs      x0, hcr_el2

----------------
IN: 
0x000800ac:  927af000  and      x0, x0, #0xffffffffffffffc7

----------------
IN: 
0x000800b0:  d51c1100  msr      hcr_el2, x0

----------------
IN: 
0x000800b4:  10000061  adr      x1, #0x800c0

----------------
IN: 
0x000800b8:  d51c4021  msr      elr_el2, x1

----------------
IN: 
0x000800bc:  d69f03e0  eret     

Exception return from AArch64 EL2 to AArch64 EL1 PC 0x800c0
----------------
IN: 
0x000800c0:  58000281  ldr      x1, #0x80110

----------------
IN: 
0x000800c4:  d53800a0  mrs      x0, mpidr_el1

----------------
IN: 
0x000800c8:  92400400  and      x0, x0, #3

----------------
IN: 
0x000800cc:  580000e2  ldr      x2, #0x800e8

----------------
IN: 
0x000800d0:  58000103  ldr      x3, #0x800f0

----------------
IN: 
0x000800d4:  eb030042  subs     x2, x2, x3

----------------
IN: 
0x000800d8:  9b007c42  mul      x2, x2, x0

----------------
IN: 
0x000800dc:  cb020020  sub      x0, x1, x2

----------------
IN: 
0x000800e0:  9100001f  mov      sp, x0

----------------
IN: 
0x000800e4:  d65f03c0  ret      

----------------
IN: 
0x00080048:  10013dc0  adr      x0, #0x82800

----------------
IN: 
0x0008004c:  d518c000  msr      vbar_el1, x0

----------------
IN: 
0x00080050:  d5381041  mrs      x1, cpacr_el1

----------------
IN: 
0x00080054:  d2a00600  movz     x0, #0x30, lsl #16

----------------
IN: 
0x00080058:  aa000020  orr      x0, x1, x0

----------------
IN: 
0x0008005c:  d5181040  msr      cpacr_el1, x0

----------------
IN: 
0x00080060:  d53800a0  mrs      x0, mpidr_el1

----------------
IN: 
0x00080064:  92400400  and      x0, x0, #3

----------------
IN: 
0x00080068:  14000bd6  b        #0x82fc0

----------------
IN: 
0x00082fc0:  d10243ff  sub      sp, sp, #0x90

----------------
IN: 
0x00082fc4:  f9003bf4  str      x20, [sp, #0x70]

----------------
IN: 
0x00082fc8:  a9087bf3  stp      x19, x30, [sp, #0x80]

----------------
IN: 
0x00082fcc:  2a0003f3  mov      w19, w0

----------------
IN: 
0x00082fd0:  940000ba  bl       #0x832b8

----------------
IN: 
0x000832b8:  f81f0ffe  str      x30, [sp, #0xfffffffffffffff0]!

----------------
IN: 
0x000832bc:  d5384248  mrs      x8, currentel

----------------
IN: 
0x000832c0:  d3420d08  ubfx     x8, x8, #2, #2

----------------
IN: 
0x000832c4:  f100051f  cmp      x8, #1

----------------
IN: 
0x000832c8:  54000580  b.eq     #0x83378

----------------
IN: 
0x00083378:  d5381009  mrs      x9, sctlr_el1

----------------
IN: 
0x0008337c:  928200aa  movn     x10, #0x1005

----------------
IN: 
0x00083380:  8a0a0129  and      x9, x9, x10

----------------
IN: 
0x00083384:  d5181009  msr      sctlr_el1, x9

----------------
IN: 
0x00083388:  35fffb00  cbnz     w0, #0x832e8

----------------
IN: 
0x0008338c:  f0000029  adrp     x9, #0x8a000

----------------
IN: 
0x00083390:  5280e22c  movz     w12, #0x711

----------------
IN: 
0x00083394:  91000129  add      x9, x9, #0

----------------
IN: 
0x00083398:  9140052a  add      x10, x9, #1, lsl #12

----------------
IN: 
0x0008339c:  9140092b  add      x11, x9, #2, lsl #12

----------------
IN: 
0x000833a0:  b241094a  orr      x10, x10, #0x8000000000000003

----------------
IN: 
0x000833a4:  b241096b  orr      x11, x11, #0x8000000000000003

----------------
IN: 
0x000833a8:  4e080d80  dup      v0.2d, x12

----------------
IN: 
0x000833ac:  5280008c  movz     w12, #0x4

----------------
IN: 
0x000833b0:  9e670144  fmov     d4, x10

----------------
IN: 
0x000833b4:  5280e22a  movz     w10, #0x711

----------------
IN: 
0x000833b8:  72a0080a  movk     w10, #0x40, lsl #16

----------------
IN: 
0x000833bc:  4e080d82  dup      v2.2d, x12

----------------
IN: 
0x000833c0:  4e080d41  dup      v1.2d, x10

----------------
IN: 
0x000833c4:  f000000a  adrp     x10, #0x86000

----------------
IN: 
0x000833c8:  4e181d64  ins      v4.d[1], x11

----------------
IN: 
0x000833cc:  3dc24543  ldr      q3, [x10, #0x910]

----------------
IN: 
0x000833d0:  aa1f03ea  mov      x10, xzr

----------------
IN: 
0x000833d4:  3d800124  str      q4, [x9]

----------------
IN: 
0x000833d8:  4f555464  shl      v4.2d, v3.2d, #0x15

----------------
IN: 
0x000833dc:  8b0a012b  add      x11, x9, x10

----------------
IN: 
0x000833e0:  4ee28463  add      v3.2d, v3.2d, v2.2d

----------------
IN: 
0x000833e4:  9100814a  add      x10, x10, #0x20

----------------
IN: 
0x000833e8:  f13f015f  cmp      x10, #0xfc0

----------------
IN: 
0x000833ec:  4ea01c85  orr      v5.16b, v4.16b, v0.16b

----------------
IN: 
0x000833f0:  4ee18484  add      v4.2d, v4.2d, v1.2d

----------------
IN: 
0x000833f4:  3d840165  str      q5, [x11, #0x1000]

----------------
IN: 
0x000833f8:  3d840564  str      q4, [x11, #0x1010]

----------------
IN: 
0x000833fc:  54fffee1  b.ne     #0x833d8

----------------
IN: 
0x00083400:  f0000009  adrp     x9, #0x86000

----------------
IN: 
0x00083404:  f000000a  adrp     x10, #0x86000

----------------
IN: 
0x00083408:  f000000b  adrp     x11, #0x86000

----------------
IN: 
0x0008340c:  3dc24920  ldr      q0, [x9, #0x920]

----------------
IN: 
0x00083410:  f0000009  adrp     x9, #0x86000

----------------
IN: 
0x00083414:  3dc24d41  ldr      q1, [x10, #0x930]

----------------
IN: 
0x00083418:  9000004a  adrp     x10, #0x8b000

----------------
IN: 
0x0008341c:  3dc25162  ldr      q2, [x11, #0x940]

----------------
IN: 
0x00083420:  913f014a  add      x10, x10, #0xfc0

----------------
IN: 
0x00083424:  3dc25523  ldr      q3, [x9, #0x950]

----------------
IN: 
0x00083428:  52808029  movz     w9, #0x401

----------------
IN: 
0x0008342c:  72a80009  movk     w9, #0x4000, lsl #16

----------------
IN: 
0x00083430:  ad000540  stp      q0, q1, [x10]

----------------
IN: 
0x00083434:  ad010d42  stp      q2, q3, [x10, #0x20]

----------------
IN: 
0x00083438:  f9002149  str      x9, [x10, #0x40]

----------------
IN: 
0x0008343c:  d5033a9f  dsb      ishst

----------------
IN: 
0x00083440:  f100051f  cmp      x8, #1

----------------
IN: 
0x00083444:  54fff561  b.ne     #0x832f0

----------------
IN: 
0x00083448:  d2808008  movz     x8, #0x400

----------------
IN: 
0x0008344c:  d538a209  mrs      x9, mair_el1

----------------
IN: 
0x00083450:  f2a88188  movk     x8, #0x440c, lsl #16

----------------
IN: 
0x00083454:  f2c01fe8  movk     x8, #0xff, lsl #32

----------------
IN: 
0x00083458:  b3409d09  bfxil    x9, x8, #0, #0x28

----------------
IN: 
0x0008345c:  f0000028  adrp     x8, #0x8a000

----------------
IN: 
0x00083460:  91000108  add      x8, x8, #0

----------------
IN: 
0x00083464:  d518a209  msr      mair_el1, x9

----------------
IN: 
0x00083468:  d5382009  mrs      x9, ttbr0_el1

----------------
IN: 
0x0008346c:  b340bd09  bfxil    x9, x8, #0, #0x30

----------------
IN: 
0x00083470:  52800808  movz     w8, #0x40

----------------
IN: 
0x00083474:  72a00c08  movk     w8, #0x60, lsl #16

----------------
IN: 
0x00083478:  d5182009  msr      ttbr0_el1, x9

----------------
IN: 
0x0008347c:  d5382049  mrs      x9, tcr_el1

----------------
IN: 
0x00083480:  0a080128  and      w8, w9, w8

----------------
IN: 
0x00083484:  5286a329  movz     w9, #0x3519

----------------
IN: 
0x00083488:  72a7b329  movk     w9, #0x3d99, lsl #16

----------------
IN: 
0x0008348c:  2a090108  orr      w8, w8, w9

----------------
IN: 
0x00083490:  d5182048  msr      tcr_el1, x8

----------------
IN: 
0x00083494:  d5381008  mrs      x8, sctlr_el1

----------------
IN: 
0x00083498:  528200a9  movz     w9, #0x1005

----------------
IN: 
0x0008349c:  927cf108  and      x8, x8, #0xfffffffffffffff1

----------------
IN: 
0x000834a0:  aa090108  orr      x8, x8, x9

----------------
IN: 
0x000834a4:  d5181008  msr      sctlr_el1, x8

----------------
IN: 
0x000834a8:  d503201f  nop      

----------------
IN: 
0x000834ac:  d503201f  nop      

----------------
IN: 
0x000834b0:  f84107fe  ldr      x30, [sp], #0x10

----------------
IN: 
0x000834b4:  d65f03c0  ret      

----------------
IN: 
0x00082fd4:  35000a73  cbnz     w19, #0x83120

----------------
IN: 
0x00082fd8:  d0000034  adrp     x20, #0x88000

----------------
IN: 
0x00082fdc:  f9443294  ldr      x20, [x20, #0x860]

----------------
IN: 
0x00082fe0:  aa1403e0  mov      x0, x20

----------------
IN: 
0x00082fe4:  94000703  bl       #0x84bf0

----------------
IN: 
0x00084bf0:  52800028  movz     w8, #0x1

----------------
IN: 
0x00084bf4:  085ffc09  ldaxrb   w9, [x0]

----------------
IN: 
0x00084bf8:  34000089  cbz      w9, #0x84c08

----------------
IN: 
0x00084c08:  0809fc08  stlxrb   w9, w8, [x0]

----------------
IN: 
0x00084c0c:  35ffffa9  cbnz     w9, #0x84c00

----------------
IN: 
0x00084c10:  d65f03c0  ret      

----------------
IN: 
0x00082fe8:  910103e8  add      x8, sp, #0x40

----------------
IN: 
0x00082fec:  aa1403e0  mov      x0, x20

----------------
IN: 
0x00082ff0:  52800081  movz     w1, #0x4

----------------
IN: 
0x00082ff4:  94000463  bl       #0x84180

----------------
IN: 
0x00084180:  d10203ff  sub      sp, sp, #0x80

----------------
IN: 
0x00084184:  a9077bf3  stp      x19, x30, [sp, #0x70]

----------------
IN: 
0x00084188:  aa0803f3  mov      x19, x8

----------------
IN: 
0x0008418c:  d0000008  adrp     x8, #0x86000

----------------
IN: 
0x00084190:  290c07ff  stp      wzr, w1, [sp, #0x60]

----------------
IN: 
0x00084194:  52800100  movz     w0, #0x8

----------------
IN: 
0x00084198:  910143e1  add      x1, sp, #0x50

----------------
IN: 
0x0008419c:  290d7fff  stp      wzr, wzr, [sp, #0x68]

----------------
IN: 
0x000841a0:  3dc31500  ldr      q0, [x8, #0xc50]

----------------
IN: 
0x000841a4:  910083e8  add      x8, sp, #0x20

----------------
IN: 
0x000841a8:  3d8017e0  str      q0, [sp, #0x50]

----------------
IN: 
0x000841ac:  94000019  bl       #0x84210

----------------
IN: 
0x00084210:  a9be53f5  stp      x21, x20, [sp, #-0x20]!

----------------
IN: 
0x00084214:  a9017bf3  stp      x19, x30, [sp, #0x10]

----------------
IN: 
0x00084218:  aa0103f4  mov      x20, x1

----------------
IN: 
0x0008421c:  2a0003f5  mov      w21, w0

----------------
IN: 
0x00084220:  aa0803f3  mov      x19, x8

----------------
IN: 
0x00084224:  94000035  bl       #0x842f8

----------------
IN: 
0x000842f8:  1400009f  b        #0x84574

----------------
IN: 
0x00084574:  d10403ff  sub      sp, sp, #0x100

----------------
IN: 
0x00084578:  a90007e0  stp      x0, x1, [sp]

----------------
IN: 
0x0008457c:  a9010fe2  stp      x2, x3, [sp, #0x10]

----------------
IN: 
0x00084580:  a90217e4  stp      x4, x5, [sp, #0x20]

----------------
IN: 
0x00084584:  a9031fe6  stp      x6, x7, [sp, #0x30]

----------------
IN: 
0x00084588:  a90427e8  stp      x8, x9, [sp, #0x40]

----------------
IN: 
0x0008458c:  a9052fea  stp      x10, x11, [sp, #0x50]

----------------
IN: 
0x00084590:  a90637ec  stp      x12, x13, [sp, #0x60]

----------------
IN: 
0x00084594:  a9073fee  stp      x14, x15, [sp, #0x70]

----------------
IN: 
0x00084598:  a90847f0  stp      x16, x17, [sp, #0x80]

----------------
IN: 
0x0008459c:  a9094ff2  stp      x18, x19, [sp, #0x90]

----------------
IN: 
0x000845a0:  a90a57f4  stp      x20, x21, [sp, #0xa0]

----------------
IN: 
0x000845a4:  a90b5ff6  stp      x22, x23, [sp, #0xb0]

----------------
IN: 
0x000845a8:  a90c67f8  stp      x24, x25, [sp, #0xc0]

----------------
IN: 
0x000845ac:  a90d6ffa  stp      x26, x27, [sp, #0xd0]

----------------
IN: 
0x000845b0:  a90e77fc  stp      x28, x29, [sp, #0xe0]

----------------
IN: 
0x000845b4:  f9007bfe  str      x30, [sp, #0xf0]

----------------
IN: 
0x000845b8:  d5033f9f  dsb      sy

----------------
IN: 
0x000845bc:  d5390020  mrs      x0, clidr_el1

----------------
IN: 
0x000845c0:  92680803  and      x3, x0, #0x7000000

----------------
IN: 
0x000845c4:  d357fc63  lsr      x3, x3, #0x17

----------------
IN: 
0x000845c8:  b40003c3  cbz      x3, #0x84640

----------------
IN: 
0x000845cc:  d280000a  movz     x10, #0

----------------
IN: 
0x000845d0:  8b4a0542  add      x2, x10, x10, lsr #1

----------------
IN: 
0x000845d4:  9ac22401  lsr      x1, x0, x2

----------------
IN: 
0x000845d8:  92400821  and      x1, x1, #7

----------------
IN: 
0x000845dc:  f100083f  cmp      x1, #2

----------------
IN: 
0x000845e0:  540002ab  b.lt     #0x84634

----------------
IN: 
0x000845e4:  d51a000a  msr      csselr_el1, x10

----------------
IN: 
0x000845e8:  d5033fdf  isb      

----------------
IN: 
0x000845ec:  d5390001  mrs      x1, ccsidr_el1

----------------
IN: 
0x000845f0:  92400822  and      x2, x1, #7

----------------
IN: 
0x000845f4:  91001042  add      x2, x2, #4

----------------
IN: 
0x000845f8:  d2807fe4  movz     x4, #0x3ff

----------------
IN: 
0x000845fc:  8a410c84  and      x4, x4, x1, lsr #3

----------------
IN: 
0x00084600:  5ac01085  clz      w5, w4

----------------
IN: 
0x00084604:  d28fffe7  movz     x7, #0x7fff

----------------
IN: 
0x00084608:  8a4134e7  and      x7, x7, x1, lsr #13

----------------
IN: 
0x0008460c:  aa0403e9  mov      x9, x4

----------------
IN: 
0x00084610:  9ac52126  lsl      x6, x9, x5

----------------
IN: 
0x00084614:  aa06014b  orr      x11, x10, x6

----------------
IN: 
0x00084618:  9ac220e6  lsl      x6, x7, x2

----------------
IN: 
0x0008461c:  aa06016b  orr      x11, x11, x6

----------------
IN: 
0x00084620:  d5087e4b  dc       cisw, x11

----------------
IN: 
0x00084624:  f1000529  subs     x9, x9, #1

----------------
IN: 
0x00084628:  54ffff4a  b.ge     #0x84610

----------------
IN: 
0x0008462c:  f10004e7  subs     x7, x7, #1

----------------
IN: 
0x00084630:  54fffeea  b.ge     #0x8460c

----------------
IN: 
0x00084634:  9100094a  add      x10, x10, #2

----------------
IN: 
0x00084638:  eb0a007f  cmp      x3, x10

----------------
IN: 
0x0008463c:  54fffcac  b.gt     #0x845d0

----------------
IN: 
0x00084640:  d280000a  movz     x10, #0

----------------
IN: 
0x00084644:  d51a000a  msr      csselr_el1, x10

----------------
IN: 
0x00084648:  d5033f9f  dsb      sy

----------------
IN: 
0x0008464c:  d5033fdf  isb      

----------------
IN: 
0x00084650:  a94007e0  ldp      x0, x1, [sp]

----------------
IN: 
0x00084654:  a9410fe2  ldp      x2, x3, [sp, #0x10]

----------------
IN: 
0x00084658:  a94217e4  ldp      x4, x5, [sp, #0x20]

----------------
IN: 
0x0008465c:  a9431fe6  ldp      x6, x7, [sp, #0x30]

----------------
IN: 
0x00084660:  a94427e8  ldp      x8, x9, [sp, #0x40]

----------------
IN: 
0x00084664:  a9452fea  ldp      x10, x11, [sp, #0x50]

----------------
IN: 
0x00084668:  a94637ec  ldp      x12, x13, [sp, #0x60]

----------------
IN: 
0x0008466c:  a9473fee  ldp      x14, x15, [sp, #0x70]

----------------
IN: 
0x00084670:  a94847f0  ldp      x16, x17, [sp, #0x80]

----------------
IN: 
0x00084674:  a9494ff2  ldp      x18, x19, [sp, #0x90]

----------------
IN: 
0x00084678:  a94a57f4  ldp      x20, x21, [sp, #0xa0]

----------------
IN: 
0x0008467c:  a94b5ff6  ldp      x22, x23, [sp, #0xb0]

----------------
IN: 
0x00084680:  a94c67f8  ldp      x24, x25, [sp, #0xc0]

----------------
IN: 
0x00084684:  a94d6ffa  ldp      x26, x27, [sp, #0xd0]

----------------
IN: 
0x00084688:  a94e77fc  ldp      x28, x29, [sp, #0xe0]

----------------
IN: 
0x0008468c:  f9407bfe  ldr      x30, [sp, #0xf0]

----------------
IN: 
0x00084690:  910403ff  add      sp, sp, #0x100

----------------
IN: 
0x00084694:  d65f03c0  ret      

----------------
IN: 
0x00084228:  d0000008  adrp     x8, #0x86000

----------------
IN: 
0x0008422c:  f9469908  ldr      x8, [x8, #0xd30]

----------------
IN: 
0x00084230:  b9400109  ldr      w9, [x8]

----------------
IN: 
0x00084234:  37ffffe9  tbnz     w9, #0x1f, #0x400084230

----------------
IN: 
0x00084238:  d0000009  adrp     x9, #0x86000

----------------
IN: 
0x0008423c:  d000000a  adrp     x10, #0x86000

----------------
IN: 
0x00084240:  d000000c  adrp     x12, #0x86000

----------------
IN: 
0x00084244:  121c668b  and      w11, w20, #0x3ffffff0

----------------
IN: 
0x00084248:  12001ea8  and      w8, w21, #0xff

----------------
IN: 
0x0008424c:  f9469d2d  ldr      x13, [x9, #0xd38]

----------------
IN: 
0x00084250:  2a08016b  orr      w11, w11, w8

----------------
IN: 
0x00084254:  f9469149  ldr      x9, [x10, #0xd20]

----------------
IN: 
0x00084258:  3202056b  orr      w11, w11, #0xc0000000

----------------
IN: 
0x0008425c:  f946958a  ldr      x10, [x12, #0xd28]

----------------
IN: 
0x00084260:  b90001ab  str      w11, [x13]

----------------
IN: 
0x00084264:  b940012b  ldr      w11, [x9]

----------------
IN: 
0x00084268:  37f7ffeb  tbnz     w11, #0x1e, #0x400084264

----------------
IN: 
0x0008426c:  b940014b  ldr      w11, [x10]

----------------
IN: 
0x00084270:  12000d6b  and      w11, w11, #0xf

----------------
IN: 
0x00084274:  6b08017f  cmp      w11, w8

----------------
IN: 
0x00084278:  54ffff61  b.ne     #0x84264

----------------
IN: 
0x0008427c:  9400001f  bl       #0x842f8

----------------
IN: 
0x00084280:  92407689  and      x9, x20, #0x3fffffff

----------------
IN: 
0x00084284:  52b00010  movz     w16, #0x8000, lsl #16

----------------
IN: 
0x00084288:  b9401d28  ldr      w8, [x9, #0x1c]

----------------
IN: 
0x0008428c:  b940192a  ldr      w10, [x9, #0x18]

----------------
IN: 
0x00084290:  b940152b  ldr      w11, [x9, #0x14]

----------------
IN: 
0x00084294:  b940112c  ldr      w12, [x9, #0x10]

----------------
IN: 
0x00084298:  b9400d2d  ldr      w13, [x9, #0xc]

----------------
IN: 
0x0008429c:  b940092e  ldr      w14, [x9, #8]

----------------
IN: 
0x000842a0:  b940012f  ldr      w15, [x9]

----------------
IN: 
0x000842a4:  b9400529  ldr      w9, [x9, #4]

----------------
IN: 
0x000842a8:  6b10013f  cmp      w9, w16

----------------
IN: 
0x000842ac:  54000141  b.ne     #0x842d4

----------------
IN: 
0x000842b0:  aa1f03e9  mov      x9, xzr

----------------
IN: 
0x000842b4:  2902426f  stp      w15, w16, [x19, #0x10]

----------------
IN: 
0x000842b8:  2903366e  stp      w14, w13, [x19, #0x18]

----------------
IN: 
0x000842bc:  29042e6c  stp      w12, w11, [x19, #0x20]

----------------
IN: 
0x000842c0:  2905226a  stp      w10, w8, [x19, #0x28]

----------------
IN: 
0x000842c4:  f9000269  str      x9, [x19]

----------------
IN: 
0x000842c8:  a9417bf3  ldp      x19, x30, [sp, #0x10]

----------------
IN: 
0x000842cc:  a8c253f5  ldp      x21, x20, [sp], #0x20

----------------
IN: 
0x000842d0:  d65f03c0  ret      

----------------
IN: 
0x000841b0:  f94013e8  ldr      x8, [sp, #0x20]

----------------
IN: 
0x000841b4:  f100051f  cmp      x8, #1

----------------
IN: 
0x000841b8:  54000201  b.ne     #0x841f8

----------------
IN: 
0x000841f8:  b9404be9  ldr      w9, [sp, #0x48]

----------------
IN: 
0x000841fc:  2a1f03e8  mov      w8, wzr

----------------
IN: 
0x00084200:  29002668  stp      w8, w9, [x19]

----------------
IN: 
0x00084204:  a9477bf3  ldp      x19, x30, [sp, #0x70]

----------------
IN: 
0x00084208:  910203ff  add      sp, sp, #0x80

----------------
IN: 
0x0008420c:  d65f03c0  ret      

----------------
IN: 
0x00082ff8:  aa1403e0  mov      x0, x20

----------------
IN: 
0x00082ffc:  94000707  bl       #0x84c18

----------------
IN: 
0x00084c18:  089ffc1f  stlrb    wzr, [x0]

----------------
IN: 
0x00084c1c:  d65f03c0  ret      

----------------
IN: 
0x00083000:  294827e8  ldp      w8, w9, [sp, #0x40]

----------------
IN: 
0x00083004:  7100051f  cmp      w8, #1

----------------
IN: 
0x00083008:  52965008  movz     w8, #0xb280

----------------
IN: 
0x0008300c:  72a1dcc8  movk     w8, #0xee6, lsl #16

----------------
IN: 
0x00083010:  1a890114  csel     w20, w8, w9, eq

----------------
IN: 
0x00083014:  94000137  bl       #0x834f0

----------------
IN: 
0x000834f0:  2a1f03e0  mov      w0, wzr

----------------
IN: 
0x000834f4:  d65f03c0  ret      

----------------
IN: 
0x00083018:  3901f3e0  strb     w0, [sp, #0x7c]

----------------
IN: 
0x0008301c:  52984002  movz     w2, #0xc200

----------------
IN: 
0x00083020:  9101f3e0  add      x0, sp, #0x7c

----------------
IN: 
0x00083024:  72a00022  movk     w2, #0x1, lsl #16

----------------
IN: 
0x00083028:  2a1403e1  mov      w1, w20

----------------
IN: 
0x0008302c:  94000133  bl       #0x834f8

----------------
IN: 
0x000834f8:  a9be53f5  stp      x21, x20, [sp, #-0x20]!

----------------
IN: 
0x000834fc:  a9017bf3  stp      x19, x30, [sp, #0x10]

----------------
IN: 
0x00083500:  aa0003f3  mov      x19, x0

----------------
IN: 
0x00083504:  b0000020  adrp     x0, #0x88000

----------------
IN: 
0x00083508:  2a0203f5  mov      w21, w2

----------------
IN: 
0x0008350c:  2a0103f4  mov      w20, w1

----------------
IN: 
0x00083510:  f9442400  ldr      x0, [x0, #0x848]

----------------
IN: 
0x00083514:  9400007d  bl       #0x83708

----------------
IN: 
0x00083708:  d10203ff  sub      sp, sp, #0x80

----------------
IN: 
0x0008370c:  f9002bf6  str      x22, [sp, #0x50]

----------------
IN: 
0x00083710:  a90653f5  stp      x21, x20, [sp, #0x60]

----------------
IN: 
0x00083714:  a9077bf3  stp      x19, x30, [sp, #0x70]

----------------
IN: 
0x00083718:  aa0003f3  mov      x19, x0

----------------
IN: 
0x0008371c:  94000535  bl       #0x84bf0

----------------
IN: 
0x00083720:  91004274  add      x20, x19, #0x10

----------------
IN: 
0x00083724:  910023e8  add      x8, sp, #8

----------------
IN: 
0x00083728:  aa1403e0  mov      x0, x20

----------------
IN: 
0x0008372c:  528001c1  movz     w1, #0xe

----------------
IN: 
0x00083730:  9400004e  bl       #0x83868

----------------
IN: 
0x00083868:  d10143ff  sub      sp, sp, #0x50

----------------
IN: 
0x0008386c:  f90023fe  str      x30, [sp, #0x40]

----------------
IN: 
0x00083870:  2a0103e9  mov      w9, w1

----------------
IN: 
0x00083874:  71009c3f  cmp      w1, #0x27

----------------
IN: 
0x00083878:  54000848  b.hi     #0x83980

----------------
IN: 
0x0008387c:  3869680a  ldrb     w10, [x0, x9]

----------------
IN: 
0x00083880:  5280002b  movz     w11, #0x1

----------------
IN: 
0x00083884:  340000aa  cbz      w10, #0x83898

----------------
IN: 
0x00083898:  529999ac  movz     w12, #0xcccd

----------------
IN: 
0x0008389c:  12001c2a  and      w10, w1, #0xff

----------------
IN: 
0x000838a0:  72b9998c  movk     w12, #0xcccc, lsl #16

----------------
IN: 
0x000838a4:  3829680b  strb     w11, [x0, x9]

----------------
IN: 
0x000838a8:  b9004fe1  str      w1, [sp, #0x4c]

----------------
IN: 
0x000838ac:  9bac7d4a  umull    x10, w10, w12

----------------
IN: 
0x000838b0:  d363fd4b  lsr      x11, x10, #0x23

----------------
IN: 
0x000838b4:  7100157f  cmp      w11, #5

----------------
IN: 
0x000838b8:  54000708  b.hi     #0x83998

----------------
IN: 
0x000838bc:  52800149  movz     w9, #0xa

----------------
IN: 
0x000838c0:  f000000d  adrp     x13, #0x86000

----------------
IN: 
0x000838c4:  912981ad  add      x13, x13, #0xa60

----------------
IN: 
0x000838c8:  5280008a  movz     w10, #0x4

----------------
IN: 
0x000838cc:  1b098569  msub     w9, w11, w9, w1

----------------
IN: 
0x000838d0:  72a7e40a  movk     w10, #0x3f20, lsl #16

----------------
IN: 
0x000838d4:  52a7e40c  movz     w12, #0x3f20, lsl #16

----------------
IN: 
0x000838d8:  100000ce  adr      x14, #0x838f0

----------------
IN: 
0x000838dc:  386b69af  ldrb     w15, [x13, x11]

----------------
IN: 
0x000838e0:  8b0f09ce  add      x14, x14, x15, lsl #2

----------------
IN: 
0x000838e4:  0b090529  add      w9, w9, w9, lsl #1

----------------
IN: 
0x000838e8:  12001d29  and      w9, w9, #0xff

----------------
IN: 
0x000838ec:  d61f01c0  br       x14

----------------
IN: 
0x000838f0:  aa0a03ec  mov      x12, x10

----------------
IN: 
0x000838f4:  14000008  b        #0x83914

----------------
IN: 
0x00083914:  9100614d  add      x13, x10, #0x18

----------------
IN: 
0x00083918:  9100714e  add      x14, x10, #0x1c

----------------
IN: 
0x0008391c:  7100803f  cmp      w1, #0x20

----------------
IN: 
0x00083920:  9100914f  add      x15, x10, #0x24

----------------
IN: 
0x00083924:  9100a150  add      x16, x10, #0x28

----------------
IN: 
0x00083928:  9a8e31ad  csel     x13, x13, x14, lo

----------------
IN: 
0x0008392c:  9a9031ee  csel     x14, x15, x16, lo

----------------
IN: 
0x00083930:  9100c14f  add      x15, x10, #0x30

----------------
IN: 
0x00083934:  9100d150  add      x16, x10, #0x34

----------------
IN: 
0x00083938:  aa1f03eb  mov      x11, xzr

----------------
IN: 
0x0008393c:  9a9031ef  csel     x15, x15, x16, lo

----------------
IN: 
0x00083940:  91025150  add      x16, x10, #0x94

----------------
IN: 
0x00083944:  9102614a  add      x10, x10, #0x98

----------------
IN: 
0x00083948:  a900b50c  stp      x12, x13, [x8, #8]

----------------
IN: 
0x0008394c:  9a8a320a  csel     x10, x16, x10, lo

----------------
IN: 
0x00083950:  528000ec  movz     w12, #0x7

----------------
IN: 
0x00083954:  5280002d  movz     w13, #0x1

----------------
IN: 
0x00083958:  a901bd0e  stp      x14, x15, [x8, #0x18]

----------------
IN: 
0x0008395c:  b9004101  str      w1, [x8, #0x40]

----------------
IN: 
0x00083960:  f900150a  str      x10, [x8, #0x28]

----------------
IN: 
0x00083964:  1ac121aa  lsl      w10, w13, w1

----------------
IN: 
0x00083968:  2906250c  stp      w12, w9, [x8, #0x30]

----------------
IN: 
0x0008396c:  2907290a  stp      w10, w10, [x8, #0x38]

----------------
IN: 
0x00083970:  f94023fe  ldr      x30, [sp, #0x40]

----------------
IN: 
0x00083974:  f900010b  str      x11, [x8]

----------------
IN: 
0x00083978:  910143ff  add      sp, sp, #0x50

----------------
IN: 
0x0008397c:  d65f03c0  ret      

----------------
IN: 
0x00083734:  f94007e8  ldr      x8, [sp, #8]

----------------
IN: 
0x00083738:  f100051f  cmp      x8, #1

----------------
IN: 
0x0008373c:  54000460  b.eq     #0x837c8

----------------
IN: 
0x00083740:  f9400bea  ldr      x10, [sp, #0x10]

----------------
IN: 
0x00083744:  f000000e  adrp     x14, #0x86000

----------------
IN: 
0x00083748:  294733eb  ldp      w11, w12, [sp, #0x38]

----------------
IN: 
0x0008374c:  f9401be8  ldr      x8, [sp, #0x30]

----------------
IN: 
0x00083750:  b94047e9  ldr      w9, [sp, #0x44]

----------------
IN: 
0x00083754:  b940014d  ldr      w13, [x10]

----------------
IN: 
0x00083758:  1acc216f  lsl      w15, w11, w12

----------------
IN: 
0x0008375c:  121f016b  and      w11, w11, #2

----------------
IN: 
0x00083760:  f9452dd6  ldr      x22, [x14, #0xa58]

----------------
IN: 
0x00083764:  1acc216b  lsl      w11, w11, w12

----------------
IN: 
0x00083768:  0a2f01ad  bic      w13, w13, w15

----------------
IN: 
0x0008376c:  2a0b01ab  orr      w11, w13, w11

----------------
IN: 
0x00083770:  b900014b  str      w11, [x10]

----------------
IN: 
0x00083774:  b94002ca  ldr      w10, [x22]

----------------
IN: 
0x00083778:  121e754b  and      w11, w10, #0xfffffffc

----------------
IN: 
0x0008377c:  528012ca  movz     w10, #0x96

----------------
IN: 
0x00083780:  b90002cb  str      w11, [x22]

----------------
IN: 
0x00083784:  7100054a  subs     w10, w10, #1

----------------
IN: 
0x00083788:  d503201f  nop      

----------------
IN: 
0x0008378c:  54ffffc1  b.ne     #0x83784

----------------
IN: 
0x00083790:  528012ca  movz     w10, #0x96

----------------
IN: 
0x00083794:  b9000109  str      w9, [x8]

----------------
IN: 
0x00083798:  7100054a  subs     w10, w10, #1

----------------
IN: 
0x0008379c:  d503201f  nop      

----------------
IN: 
0x000837a0:  54ffffc1  b.ne     #0x83798

----------------
IN: 
0x000837a4:  b90002df  str      wzr, [x22]

----------------
IN: 
0x000837a8:  aa1403e0  mov      x0, x20

----------------
IN: 
0x000837ac:  b9000109  str      w9, [x8]

----------------
IN: 
0x000837b0:  910023e8  add      x8, sp, #8

----------------
IN: 
0x000837b4:  528001e1  movz     w1, #0xf

----------------
IN: 
0x000837b8:  9400002c  bl       #0x83868

----------------
IN: 
0x000837bc:  f94007e8  ldr      x8, [sp, #8]

----------------
IN: 
0x000837c0:  f100051f  cmp      x8, #1

----------------
IN: 
0x000837c4:  540000a1  b.ne     #0x837d8

----------------
IN: 
0x000837d8:  f9400bea  ldr      x10, [sp, #0x10]

----------------
IN: 
0x000837dc:  294733eb  ldp      w11, w12, [sp, #0x38]

----------------
IN: 
0x000837e0:  f9401be8  ldr      x8, [sp, #0x30]

----------------
IN: 
0x000837e4:  b94047e9  ldr      w9, [sp, #0x44]

----------------
IN: 
0x000837e8:  b940014d  ldr      w13, [x10]

----------------
IN: 
0x000837ec:  1acc216e  lsl      w14, w11, w12

----------------
IN: 
0x000837f0:  121f016b  and      w11, w11, #2

----------------
IN: 
0x000837f4:  1acc216b  lsl      w11, w11, w12

----------------
IN: 
0x000837f8:  0a2e01ad  bic      w13, w13, w14

----------------
IN: 
0x000837fc:  2a0b01ab  orr      w11, w13, w11

----------------
IN: 
0x00083800:  b900014b  str      w11, [x10]

----------------
IN: 
0x00083804:  b94002ca  ldr      w10, [x22]

----------------
IN: 
0x00083808:  121e754b  and      w11, w10, #0xfffffffc

----------------
IN: 
0x0008380c:  528012ca  movz     w10, #0x96

----------------
IN: 
0x00083810:  b90002cb  str      w11, [x22]

----------------
IN: 
0x00083814:  7100054a  subs     w10, w10, #1

----------------
IN: 
0x00083818:  d503201f  nop      

----------------
IN: 
0x0008381c:  54ffffc1  b.ne     #0x83814

----------------
IN: 
0x00083820:  528012ca  movz     w10, #0x96

----------------
IN: 
0x00083824:  b9000109  str      w9, [x8]

----------------
IN: 
0x00083828:  7100054a  subs     w10, w10, #1

----------------
IN: 
0x0008382c:  d503201f  nop      

----------------
IN: 
0x00083830:  54ffffc1  b.ne     #0x83828

----------------
IN: 
0x00083834:  aa1f03f4  mov      x20, xzr

----------------
IN: 
0x00083838:  aa1f03f5  mov      x21, xzr

----------------
IN: 
0x0008383c:  b90002df  str      wzr, [x22]

----------------
IN: 
0x00083840:  b9000109  str      w9, [x8]

----------------
IN: 
0x00083844:  aa1303e0  mov      x0, x19

----------------
IN: 
0x00083848:  940004f4  bl       #0x84c18

----------------
IN: 
0x0008384c:  aa1503e0  mov      x0, x21

----------------
IN: 
0x00083850:  aa1403e1  mov      x1, x20

----------------
IN: 
0x00083854:  a9477bf3  ldp      x19, x30, [sp, #0x70]

----------------
IN: 
0x00083858:  a94653f5  ldp      x21, x20, [sp, #0x60]

----------------
IN: 
0x0008385c:  f9402bf6  ldr      x22, [sp, #0x50]

----------------
IN: 
0x00083860:  910203ff  add      sp, sp, #0x80

----------------
IN: 
0x00083864:  d65f03c0  ret      

----------------
IN: 
0x00083518:  b4000080  cbz      x0, #0x83528

----------------
IN: 
0x00083528:  f0000008  adrp     x8, #0x86000

----------------
IN: 
0x0008352c:  f0000009  adrp     x9, #0x86000

----------------
IN: 
0x00083530:  f000000a  adrp     x10, #0x86000

----------------
IN: 
0x00083534:  f000000b  adrp     x11, #0x86000

----------------
IN: 
0x00083538:  f000000d  adrp     x13, #0x86000

----------------
IN: 
0x0008353c:  f000000f  adrp     x15, #0x86000

----------------
IN: 
0x00083540:  f944d50c  ldr      x12, [x8, #0x9a8]

----------------
IN: 
0x00083544:  52800028  movz     w8, #0x1

----------------
IN: 
0x00083548:  f944d92e  ldr      x14, [x9, #0x9b0]

----------------
IN: 
0x0008354c:  f944dd49  ldr      x9, [x10, #0x9b8]

----------------
IN: 
0x00083550:  5280006a  movz     w10, #0x3

----------------
IN: 
0x00083554:  f944e16b  ldr      x11, [x11, #0x9c0]

----------------
IN: 
0x00083558:  f944e5ad  ldr      x13, [x13, #0x9c8]

----------------
IN: 
0x0008355c:  b9000188  str      w8, [x12]

----------------
IN: 
0x00083560:  b90001df  str      wzr, [x14]

----------------
IN: 
0x00083564:  b900013f  str      wzr, [x9]

----------------
IN: 
0x00083568:  f944e9ec  ldr      x12, [x15, #0x9d0]

----------------
IN: 
0x0008356c:  528018cf  movz     w15, #0xc6

----------------
IN: 
0x00083570:  b900016a  str      w10, [x11]

----------------
IN: 
0x00083574:  531d72ab  lsl      w11, w21, #3

----------------
IN: 
0x00083578:  b90001bf  str      wzr, [x13]

----------------
IN: 
0x0008357c:  b90001df  str      wzr, [x14]

----------------
IN: 
0x00083580:  b900018f  str      w15, [x12]

----------------
IN: 
0x00083584:  3400018b  cbz      w11, #0x835b4

----------------
IN: 
0x00083588:  f000000c  adrp     x12, #0x86000

----------------
IN: 
0x0008358c:  1acb0a8b  udiv     w11, w20, w11

----------------
IN: 
0x00083590:  aa1f03e1  mov      x1, xzr

----------------
IN: 
0x00083594:  5100056b  sub      w11, w11, #1

----------------
IN: 
0x00083598:  f944ed8c  ldr      x12, [x12, #0x9d8]

----------------
IN: 
0x0008359c:  b900018b  str      w11, [x12]

----------------
IN: 
0x000835a0:  b900012a  str      w10, [x9]

----------------
IN: 
0x000835a4:  39000268  strb     w8, [x19]

----------------
IN: 
0x000835a8:  a9417bf3  ldp      x19, x30, [sp, #0x10]

----------------
IN: 
0x000835ac:  a8c253f5  ldp      x21, x20, [sp], #0x20

----------------
IN: 
0x000835b0:  d65f03c0  ret      

----------------
IN: 
0x00083030:  3941f3e1  ldrb     w1, [sp, #0x7c]

----------------
IN: 
0x00083034:  b0000020  adrp     x0, #0x88000

----------------
IN: 
0x00083038:  f9440400  ldr      x0, [x0, #0x808]

----------------
IN: 
0x0008303c:  94000061  bl       #0x831c0

----------------
IN: 
0x000831c0:  d100c3ff  sub      sp, sp, #0x30

----------------
IN: 
0x000831c4:  a90153f5  stp      x21, x20, [sp, #0x10]

----------------
IN: 
0x000831c8:  a9027bf3  stp      x19, x30, [sp, #0x20]

----------------
IN: 
0x000831cc:  aa0003f3  mov      x19, x0

----------------
IN: 
0x000831d0:  390033e1  strb     w1, [sp, #0xc]

----------------
IN: 
0x000831d4:  94000687  bl       #0x84bf0

----------------
IN: 
0x000831d8:  394033f4  ldrb     w20, [sp, #0xc]

----------------
IN: 
0x000831dc:  52800020  movz     w0, #0x1

----------------
IN: 
0x000831e0:  52800021  movz     w1, #0x1

----------------
IN: 
0x000831e4:  97fff6a7  bl       #0x80c80

----------------
IN: 
0x00080c80:  f81f0ffe  str      x30, [sp, #0xfffffffffffffff0]!

----------------
IN: 
0x00080c84:  9400000d  bl       #0x80cb8

----------------
IN: 
0x00080cb8:  a9be53f5  stp      x21, x20, [sp, #-0x20]!

----------------
IN: 
0x00080cbc:  a9017bf3  stp      x19, x30, [sp, #0x10]

----------------
IN: 
0x00080cc0:  90000055  adrp     x21, #0x88000

----------------
IN: 
0x00080cc4:  aa0003f4  mov      x20, x0

----------------
IN: 
0x00080cc8:  aa0103f3  mov      x19, x1

----------------
IN: 
0x00080ccc:  f94402b5  ldr      x21, [x21, #0x800]

----------------
IN: 
0x00080cd0:  aa1503e0  mov      x0, x21

----------------
IN: 
0x00080cd4:  94000fc7  bl       #0x84bf0

----------------
IN: 
0x00080cd8:  12003e61  and      w1, w19, #0xffff

----------------
IN: 
0x00080cdc:  2a1403e0  mov      w0, w20

----------------
IN: 
0x00080ce0:  940000c0  bl       #0x80fe0

----------------
IN: 
0x00080fe0:  a9be7bfd  stp      x29, x30, [sp, #-0x20]!

----------------
IN: 
0x00080fe4:  910003fd  mov      x29, sp

----------------
IN: 
0x00080fe8:  a90153f3  stp      x19, x20, [sp, #0x10]

----------------
IN: 
0x00080fec:  52800034  movz     w20, #0x1

----------------
IN: 
0x00080ff0:  1ac12294  lsl      w20, w20, w1

----------------
IN: 
0x00080ff4:  11001e93  add      w19, w20, #7

----------------
IN: 
0x00080ff8:  0b000260  add      w0, w19, w0

----------------
IN: 
0x00080ffc:  97ffff75  bl       #0x80dd0

----------------
IN: 
0x00080dd0:  b0000048  adrp     x8, #0x89000

----------------
IN: 
0x00080dd4:  f9404503  ldr      x3, [x8, #0x88]

----------------
IN: 
0x00080dd8:  b4000743  cbz      x3, #0x80ec0

----------------
IN: 
0x00080ec0:  90000043  adrp     x3, #0x88000

----------------
IN: 
0x00080ec4:  90000044  adrp     x4, #0x88000

----------------
IN: 
0x00080ec8:  b0000041  adrp     x1, #0x89000

----------------
IN: 
0x00080ecc:  f9443463  ldr      x3, [x3, #0x868]

----------------
IN: 
0x00080ed0:  f9004503  str      x3, [x8, #0x88]

----------------
IN: 
0x00080ed4:  f9442c84  ldr      x4, [x4, #0x858]

----------------
IN: 
0x00080ed8:  cb030484  sub      x4, x4, x3, lsl #1

----------------
IN: 
0x00080edc:  f9004024  str      x4, [x1, #0x80]

----------------
IN: 
0x00080ee0:  2a0003e1  mov      w1, w0

----------------
IN: 
0x00080ee4:  9100fc21  add      x1, x1, #0x3f

----------------
IN: 
0x00080ee8:  927be821  and      x1, x1, #0xffffffffffffffe0

----------------
IN: 
0x00080eec:  f101003f  cmp      x1, #0x40

----------------
IN: 
0x00080ef0:  54fff848  b.hi     #0x80df8

----------------
IN: 
0x00080ef4:  b0000047  adrp     x7, #0x89000

----------------
IN: 
0x00080ef8:  f94048e2  ldr      x2, [x7, #0x90]

----------------
IN: 
0x00080efc:  d2800805  movz     x5, #0x40

----------------
IN: 
0x00080f00:  52800001  movz     w1, #0

----------------
IN: 
0x00080f04:  2a0503e9  mov      w9, w5

----------------
IN: 
0x00080f08:  8b0200a2  add      x2, x5, x2

----------------
IN: 
0x00080f0c:  eb04005f  cmp      x2, x4

----------------
IN: 
0x00080f10:  54fffb49  b.ls     #0x80e78

----------------
IN: 
0x00080e78:  2a0103e4  mov      w4, w1

----------------
IN: 
0x00080e7c:  b0000046  adrp     x6, #0x89000

----------------
IN: 
0x00080e80:  910040c6  add      x6, x6, #0x10

----------------
IN: 
0x00080e84:  f86478c1  ldr      x1, [x6, x4, lsl #3]

----------------
IN: 
0x00080e88:  b40004c1  cbz      x1, #0x80f20

----------------
IN: 
0x00080f20:  8b0300a5  add      x5, x5, x3

----------------
IN: 
0x00080f24:  aa0303e1  mov      x1, x3

----------------
IN: 
0x00080f28:  f9004505  str      x5, [x8, #0x88]

----------------
IN: 
0x00080f2c:  17ffffdc  b        #0x80e9c

----------------
IN: 
0x00080e9c:  f90048e2  str      x2, [x7, #0x90]

----------------
IN: 
0x00080ea0:  91008022  add      x2, x1, #0x20

----------------
IN: 
0x00080ea4:  5297dde3  movz     w3, #0xbeef

----------------
IN: 
0x00080ea8:  72bbd5a3  movk     w3, #0xdead, lsl #16

----------------
IN: 
0x00080eac:  29000023  stp      w3, w0, [x1]

----------------
IN: 
0x00080eb0:  aa0203e0  mov      x0, x2

----------------
IN: 
0x00080eb4:  b9000829  str      w9, [x1, #8]

----------------
IN: 
0x00080eb8:  a9017c3f  stp      xzr, xzr, [x1, #0x10]

----------------
IN: 
0x00080ebc:  d65f03c0  ret      

----------------
IN: 
0x00081000:  b4000120  cbz      x0, #0x81024

----------------
IN: 
0x00081004:  8b334013  add      x19, x0, w19, uxtw

----------------
IN: 
0x00081008:  4b1403f4  neg      w20, w20

----------------
IN: 
0x0008100c:  8a140273  and      x19, x19, x20

----------------
IN: 
0x00081010:  f81f8260  stur     x0, [x19, #0xfffffffffffffff8]

----------------
IN: 
0x00081014:  aa1303e0  mov      x0, x19

----------------
IN: 
0x00081018:  a94153f3  ldp      x19, x20, [sp, #0x10]

----------------
IN: 
0x0008101c:  a8c27bfd  ldp      x29, x30, [sp], #0x20

----------------
IN: 
0x00081020:  d65f03c0  ret      

----------------
IN: 
0x00080ce4:  aa0003f3  mov      x19, x0

----------------
IN: 
0x00080ce8:  aa1503e0  mov      x0, x21

----------------
IN: 
0x00080cec:  94000fcb  bl       #0x84c18

----------------
IN: 
0x00080cf0:  aa1303e0  mov      x0, x19

----------------
IN: 
0x00080cf4:  a9417bf3  ldp      x19, x30, [sp, #0x10]

----------------
IN: 
0x00080cf8:  a8c253f5  ldp      x21, x20, [sp], #0x20

----------------
IN: 
0x00080cfc:  d65f03c0  ret      

----------------
IN: 
0x00080c88:  f84107fe  ldr      x30, [sp], #0x10

----------------
IN: 
0x00080c8c:  d65f03c0  ret      

----------------
IN: 
0x000831e8:  b40002a0  cbz      x0, #0x8323c

----------------
IN: 
0x000831ec:  39000014  strb     w20, [x0]

----------------
IN: 
0x000831f0:  b0000028  adrp     x8, #0x88000

----------------
IN: 
0x000831f4:  a9415674  ldp      x20, x21, [x19, #0x10]

----------------
IN: 
0x000831f8:  910c6108  add      x8, x8, #0x318

----------------
IN: 
0x000831fc:  a9012260  stp      x0, x8, [x19, #0x10]

----------------
IN: 
0x00083200:  b4000134  cbz      x20, #0x83224

----------------
IN: 
0x00083224:  aa1303e0  mov      x0, x19

----------------
IN: 
0x00083228:  9400067c  bl       #0x84c18

----------------
IN: 
0x0008322c:  a9427bf3  ldp      x19, x30, [sp, #0x20]

----------------
IN: 
0x00083230:  a94153f5  ldp      x21, x20, [sp, #0x10]

----------------
IN: 
0x00083234:  9100c3ff  add      sp, sp, #0x30

----------------
IN: 
0x00083238:  d65f03c0  ret      

----------------
IN: 
0x00083040:  b0000028  adrp     x8, #0x88000

----------------
IN: 
0x00083044:  52800029  movz     w9, #0x1

----------------
IN: 
0x00083048:  910c2108  add      x8, x8, #0x308

----------------
IN: 
0x0008304c:  5280010a  movz     w10, #0x8

----------------
IN: 
0x00083050:  a9057fff  stp      xzr, xzr, [sp, #0x50]

----------------
IN: 
0x00083054:  a90427e8  stp      x8, x9, [sp, #0x40]

----------------
IN: 
0x00083058:  a9067fea  stp      x10, xzr, [sp, #0x60]

----------------
IN: 
0x0008305c:  9100a3e8  add      x8, sp, #0x28

----------------
IN: 
0x00083060:  910103e0  add      x0, sp, #0x40

----------------
IN: 
0x00083064:  94000762  bl       #0x84dec

----------------
IN: 
0x00084dec:  d10203ff  sub      sp, sp, #0x80

----------------
IN: 
0x00084df0:  f9002bf6  str      x22, [sp, #0x50]

----------------
IN: 
0x00084df4:  a90653f5  stp      x21, x20, [sp, #0x60]

----------------
IN: 
0x00084df8:  a9077bf3  stp      x19, x30, [sp, #0x70]

----------------
IN: 
0x00084dfc:  a9402809  ldp      x9, x10, [x0]

----------------
IN: 
0x00084e00:  aa0003f4  mov      x20, x0

----------------
IN: 
0x00084e04:  aa0803f3  mov      x19, x8

----------------
IN: 
0x00084e08:  d37ced4b  lsl      x11, x10, #4

----------------
IN: 
0x00084e0c:  b400012b  cbz      x11, #0x84e30

----------------
IN: 
0x00084e10:  d1004168  sub      x8, x11, #0x10

----------------
IN: 
0x00084e14:  d344fd08  lsr      x8, x8, #4

----------------
IN: 
0x00084e18:  91000508  add      x8, x8, #1

----------------
IN: 
0x00084e1c:  f100151f  cmp      x8, #5

----------------
IN: 
0x00084e20:  54000102  b.hs     #0x84e40

----------------
IN: 
0x00084e24:  aa1f03f5  mov      x21, xzr

----------------
IN: 
0x00084e28:  aa0903e8  mov      x8, x9

----------------
IN: 
0x00084e2c:  14000019  b        #0x84e90

----------------
IN: 
0x00084e90:  8b0a112b  add      x11, x9, x10, lsl #4

----------------
IN: 
0x00084e94:  f940050c  ldr      x12, [x8, #8]

----------------
IN: 
0x00084e98:  91004108  add      x8, x8, #0x10

----------------
IN: 
0x00084e9c:  eb08017f  cmp      x11, x8

----------------
IN: 
0x00084ea0:  8b150195  add      x21, x12, x21

----------------
IN: 
0x00084ea4:  54ffff81  b.ne     #0x84e94

----------------
IN: 
0x00084ea8:  f9401688  ldr      x8, [x20, #0x28]

----------------
IN: 
0x00084eac:  b4000148  cbz      x8, #0x84ed4

----------------
IN: 
0x00084ed4:  b40000f5  cbz      x21, #0x84ef0

----------------
IN: 
0x00084ed8:  52800021  movz     w1, #0x1

----------------
IN: 
0x00084edc:  aa1503e0  mov      x0, x21

----------------
IN: 
0x00084ee0:  97ffef68  bl       #0x80c80

----------------
IN: 
0x00080ddc:  b0000041  adrp     x1, #0x89000

----------------
IN: 
0x00080de0:  f9404024  ldr      x4, [x1, #0x80]

----------------
IN: 
0x00080de4:  2a0003e1  mov      w1, w0

----------------
IN: 
0x00080de8:  9100fc21  add      x1, x1, #0x3f

----------------
IN: 
0x00080dec:  927be821  and      x1, x1, #0xffffffffffffffe0

----------------
IN: 
0x00080df0:  f101003f  cmp      x1, #0x40

----------------
IN: 
0x00080df4:  54000809  b.ls     #0x80ef4

----------------
IN: 
0x00080df8:  f104003f  cmp      x1, #0x100

----------------
IN: 
0x00080dfc:  54000a29  b.ls     #0x80f40

----------------
IN: 
0x00080f40:  d2802005  movz     x5, #0x100

----------------
IN: 
0x00080f44:  52800021  movz     w1, #0x1

----------------
IN: 
0x00080f48:  2a0503e9  mov      w9, w5

----------------
IN: 
0x00080f4c:  17ffffc6  b        #0x80e64

----------------
IN: 
0x00080e64:  b0000047  adrp     x7, #0x89000

----------------
IN: 
0x00080e68:  f94048e2  ldr      x2, [x7, #0x90]

----------------
IN: 
0x00080e6c:  8b0200a2  add      x2, x5, x2

----------------
IN: 
0x00080e70:  eb04005f  cmp      x2, x4

----------------
IN: 
0x00080e74:  54000508  b.hi     #0x80f14

----------------
IN: 
0x00084ee4:  b4000540  cbz      x0, #0x84f8c

----------------
IN: 
0x00084ee8:  910023f6  add      x22, sp, #8

----------------
IN: 
0x00084eec:  14000003  b        #0x84ef8

----------------
IN: 
0x00084ef8:  ad408282  ldp      q2, q0, [x20, #0x10]

----------------
IN: 
0x00084efc:  3dc00281  ldr      q1, [x20]

----------------
IN: 
0x00084f00:  910023e8  add      x8, sp, #8

----------------
IN: 
0x00084f04:  a900d7e0  stp      x0, x21, [sp, #8]

----------------
IN: 
0x00084f08:  f9000fff  str      xzr, [sp, #0x18]

----------------
IN: 
0x00084f0c:  f9002fe8  str      x8, [sp, #0x58]

----------------
IN: 
0x00084f10:  ad0183e2  stp      q2, q0, [sp, #0x30]

----------------
IN: 
0x00084f14:  3d800be1  str      q1, [sp, #0x20]

----------------
IN: 
0x00084f18:  90000021  adrp     x1, #0x88000

----------------
IN: 
0x00084f1c:  91154021  add      x1, x1, #0x550

----------------
IN: 
0x00084f20:  910163e0  add      x0, sp, #0x58

----------------
IN: 
0x00084f24:  910083e2  add      x2, sp, #0x20

----------------
IN: 
0x00084f28:  94000285  bl       #0x8593c

----------------
IN: 
0x0008593c:  d10303ff  sub      sp, sp, #0xc0

----------------
IN: 
0x00085940:  f90033fc  str      x28, [sp, #0x60]

----------------
IN: 
0x00085944:  a9076bfb  stp      x27, x26, [sp, #0x70]

----------------
IN: 
0x00085948:  a90863f9  stp      x25, x24, [sp, #0x80]

----------------
IN: 
0x0008594c:  a9095bf7  stp      x23, x22, [sp, #0x90]

----------------
IN: 
0x00085950:  a90a53f5  stp      x21, x20, [sp, #0xa0]

----------------
IN: 
0x00085954:  a90b7bf3  stp      x19, x30, [sp, #0xb0]

----------------
IN: 
0x00085958:  a9422056  ldp      x22, x8, [x2, #0x20]

----------------
IN: 
0x0008595c:  d0000009  adrp     x9, #0x87000

----------------
IN: 
0x00085960:  fd417520  ldr      d0, [x9, #0x2e8]

----------------
IN: 
0x00085964:  f9400855  ldr      x21, [x2, #0x10]

----------------
IN: 
0x00085968:  5280006a  movz     w10, #0x3

----------------
IN: 
0x0008596c:  8b0812c9  add      x9, x22, x8, lsl #4

----------------
IN: 
0x00085970:  f9000bff  str      xzr, [sp, #0x10]

----------------
IN: 
0x00085974:  f90003ff  str      xzr, [sp]

----------------
IN: 
0x00085978:  a90207e0  stp      x0, x1, [sp, #0x20]

----------------
IN: 
0x0008597c:  390163ea  strb     w10, [sp, #0x58]

----------------
IN: 
0x00085980:  a90423f6  stp      x22, x8, [sp, #0x40]

----------------
IN: 
0x00085984:  a90327f6  stp      x22, x9, [sp, #0x30]

----------------
IN: 
0x00085988:  fd002be0  str      d0, [sp, #0x50]

----------------
IN: 
0x0008598c:  b4001295  cbz      x21, #0x85bdc

----------------
IN: 
0x00085bdc:  a9405053  ldp      x19, x20, [x2]

----------------
IN: 
0x00085be0:  eb14011f  cmp      x8, x20

----------------
IN: 
0x00085be4:  9a888297  csel     x23, x20, x8, hi

----------------
IN: 
0x00085be8:  b4000317  cbz      x23, #0x85c48

----------------
IN: 
0x00085c48:  aa1f03f5  mov      x21, xzr

----------------
IN: 
0x00085c4c:  eb15029f  cmp      x20, x21

----------------
IN: 
0x00085c50:  54000129  b.ls     #0x85c74

----------------
IN: 
0x00085c54:  a94223e0  ldp      x0, x8, [sp, #0x20]

----------------
IN: 
0x00085c58:  8b151269  add      x9, x19, x21, lsl #4

----------------
IN: 
0x00085c5c:  a9400921  ldp      x1, x2, [x9]

----------------
IN: 
0x00085c60:  f9400d08  ldr      x8, [x8, #0x18]

----------------
IN: 
0x00085c64:  d63f0100  blr      x8

----------------
IN: 
0x0008500c:  d10103ff  sub      sp, sp, #0x40

----------------
IN: 
0x00085010:  a90253f5  stp      x21, x20, [sp, #0x20]

----------------
IN: 
0x00085014:  a9037bf3  stp      x19, x30, [sp, #0x30]

----------------
IN: 
0x00085018:  f9400015  ldr      x21, [x0]

----------------
IN: 
0x0008501c:  aa0203f3  mov      x19, x2

----------------
IN: 
0x00085020:  aa0103f4  mov      x20, x1

----------------
IN: 
0x00085024:  910023e0  add      x0, sp, #8

----------------
IN: 
0x00085028:  f9400aa2  ldr      x2, [x21, #0x10]

----------------
IN: 
0x0008502c:  52800024  movz     w4, #0x1

----------------
IN: 
0x00085030:  52800025  movz     w5, #0x1

----------------
IN: 
0x00085034:  aa1503e1  mov      x1, x21

----------------
IN: 
0x00085038:  aa1303e3  mov      x3, x19

----------------
IN: 
0x0008503c:  97ffff24  bl       #0x84ccc

----------------
IN: 
0x00084ccc:  f81d0ff6  str      x22, [sp, #0xffffffffffffffd0]!

----------------
IN: 
0x00084cd0:  a90153f5  stp      x21, x20, [sp, #0x10]

----------------
IN: 
0x00084cd4:  a9027bf3  stp      x19, x30, [sp, #0x20]

----------------
IN: 
0x00084cd8:  aa0103f6  mov      x22, x1

----------------
IN: 
0x00084cdc:  f9400421  ldr      x1, [x1, #8]

----------------
IN: 
0x00084ce0:  aa0003f3  mov      x19, x0

----------------
IN: 
0x00084ce4:  cb020028  sub      x8, x1, x2

----------------
IN: 
0x00084ce8:  eb03011f  cmp      x8, x3

----------------
IN: 
0x00084cec:  54000322  b.hs     #0x84d50

----------------
IN: 
0x00084d50:  f900027f  str      xzr, [x19]

----------------
IN: 
0x00084d54:  a9427bf3  ldp      x19, x30, [sp, #0x20]

----------------
IN: 
0x00084d58:  a94153f5  ldp      x21, x20, [sp, #0x10]

----------------
IN: 
0x00084d5c:  f84307f6  ldr      x22, [sp], #0x30

----------------
IN: 
0x00084d60:  d65f03c0  ret      

----------------
IN: 
0x00085040:  f94007e8  ldr      x8, [sp, #8]

----------------
IN: 
0x00085044:  f100051f  cmp      x8, #1

----------------
IN: 
0x00085048:  540001e0  b.eq     #0x85084

----------------
IN: 
0x0008504c:  f9400aa8  ldr      x8, [x21, #0x10]

----------------
IN: 
0x00085050:  f94002a9  ldr      x9, [x21]

----------------
IN: 
0x00085054:  aa1303e1  mov      x1, x19

----------------
IN: 
0x00085058:  aa1403e2  mov      x2, x20

----------------
IN: 
0x0008505c:  8b13010a  add      x10, x8, x19

----------------
IN: 
0x00085060:  8b080120  add      x0, x9, x8

----------------
IN: 
0x00085064:  aa1303e3  mov      x3, x19

----------------
IN: 
0x00085068:  f9000aaa  str      x10, [x21, #0x10]

----------------
IN: 
0x0008506c:  94000075  bl       #0x85240

----------------
IN: 
0x00085240:  d10303ff  sub      sp, sp, #0xc0

----------------
IN: 
0x00085244:  f9005bfe  str      x30, [sp, #0xb0]

----------------
IN: 
0x00085248:  eb03003f  cmp      x1, x3

----------------
IN: 
0x0008524c:  a9008fe1  stp      x1, x3, [sp, #8]

----------------
IN: 
0x00085250:  540000e1  b.ne     #0x8526c

----------------
IN: 
0x00085254:  f9405bfe  ldr      x30, [sp, #0xb0]

----------------
IN: 
0x00085258:  aa0203e8  mov      x8, x2

----------------
IN: 
0x0008525c:  aa0103e2  mov      x2, x1

----------------
IN: 
0x00085260:  aa0803e1  mov      x1, x8

----------------
IN: 
0x00085264:  910303ff  add      sp, sp, #0xc0

----------------
IN: 
0x00085268:  140004da  b        #0x865d0

----------------
IN: 
0x000865d0:  b4000222  cbz      x2, #0x86614

----------------
IN: 
0x000865d4:  f1007c5f  cmp      x2, #0x1f

----------------
IN: 
0x000865d8:  540000e9  b.ls     #0x865f4

----------------
IN: 
0x000865dc:  8b020028  add      x8, x1, x2

----------------
IN: 
0x000865e0:  eb00011f  cmp      x8, x0

----------------
IN: 
0x000865e4:  540001a9  b.ls     #0x86618

----------------
IN: 
0x00086618:  927be848  and      x8, x2, #0xffffffffffffffe0

----------------
IN: 
0x0008661c:  91004029  add      x9, x1, #0x10

----------------
IN: 
0x00086620:  9100400a  add      x10, x0, #0x10

----------------
IN: 
0x00086624:  aa0803eb  mov      x11, x8

----------------
IN: 
0x00086628:  ad7f8520  ldp      q0, q1, [x9, #-0x10]

----------------
IN: 
0x0008662c:  91008129  add      x9, x9, #0x20

----------------
IN: 
0x00086630:  f100816b  subs     x11, x11, #0x20

----------------
IN: 
0x00086634:  ad3f8540  stp      q0, q1, [x10, #-0x10]

----------------
IN: 
0x00086638:  9100814a  add      x10, x10, #0x20

----------------
IN: 
0x0008663c:  54ffff61  b.ne     #0x86628

----------------
IN: 
0x00086640:  eb02011f  cmp      x8, x2

----------------
IN: 
0x00086644:  54fffda1  b.ne     #0x865f8

----------------
IN: 
0x000865f8:  cb080049  sub      x9, x2, x8

----------------
IN: 
0x000865fc:  8b08000a  add      x10, x0, x8

----------------
IN: 
0x00086600:  8b080028  add      x8, x1, x8

----------------
IN: 
0x00086604:  3840150b  ldrb     w11, [x8], #1

----------------
IN: 
0x00086608:  f1000529  subs     x9, x9, #1

----------------
IN: 
0x0008660c:  3800154b  strb     w11, [x10], #1

----------------
IN: 
0x00086610:  54ffffa1  b.ne     #0x86604

----------------
IN: 
0x00086614:  d65f03c0  ret      

----------------
IN: 
0x00085070:  a9437bf3  ldp      x19, x30, [sp, #0x30]

----------------
IN: 
0x00085074:  a94253f5  ldp      x21, x20, [sp, #0x20]

----------------
IN: 
0x00085078:  2a1f03e0  mov      w0, wzr

----------------
IN: 
0x0008507c:  910103ff  add      sp, sp, #0x40

----------------
IN: 
0x00085080:  d65f03c0  ret      

----------------
IN: 
0x00085c68:  36000060  tbz      w0, #0, #0x85c74

----------------
IN: 
0x00085c74:  2a1f03e0  mov      w0, wzr

----------------
IN: 
0x00085c78:  a94b7bf3  ldp      x19, x30, [sp, #0xb0]

----------------
IN: 
0x00085c7c:  a94a53f5  ldp      x21, x20, [sp, #0xa0]

----------------
IN: 
0x00085c80:  a9495bf7  ldp      x23, x22, [sp, #0x90]

----------------
IN: 
0x00085c84:  a94863f9  ldp      x25, x24, [sp, #0x80]

----------------
IN: 
0x00085c88:  a9476bfb  ldp      x27, x26, [sp, #0x70]

----------------
IN: 
0x00085c8c:  f94033fc  ldr      x28, [sp, #0x60]

----------------
IN: 
0x00085c90:  910303ff  add      sp, sp, #0xc0

----------------
IN: 
0x00085c94:  d65f03c0  ret      

----------------
IN: 
0x00084f2c:  35000140  cbnz     w0, #0x84f54

----------------
IN: 
0x00084f30:  f9400ac8  ldr      x8, [x22, #0x10]

----------------
IN: 
0x00084f34:  3dc002c0  ldr      q0, [x22]

----------------
IN: 
0x00084f38:  a94653f5  ldp      x21, x20, [sp, #0x60]

----------------
IN: 
0x00084f3c:  f9402bf6  ldr      x22, [sp, #0x50]

----------------
IN: 
0x00084f40:  f9000a68  str      x8, [x19, #0x10]

----------------
IN: 
0x00084f44:  3d800260  str      q0, [x19]

----------------
IN: 
0x00084f48:  a9477bf3  ldp      x19, x30, [sp, #0x70]

----------------
IN: 
0x00084f4c:  910203ff  add      sp, sp, #0x80

----------------
IN: 
0x00084f50:  d65f03c0  ret      

----------------
IN: 
0x00083068:  a942a3e9  ldp      x9, x8, [sp, #0x28]

----------------
IN: 
0x0008306c:  f9401fea  ldr      x10, [sp, #0x38]

----------------
IN: 
0x00083070:  a9057fff  stp      xzr, xzr, [sp, #0x50]

----------------
IN: 
0x00083074:  a90123e9  stp      x9, x8, [sp, #0x10]

----------------
IN: 
0x00083078:  f0ffffe9  adrp     x9, #0x82000

----------------
IN: 
0x0008307c:  910043e8  add      x8, sp, #0x10

----------------
IN: 
0x00083080:  913ea129  add      x9, x9, #0xfa8

----------------
IN: 
0x00083084:  f90013ea  str      x10, [sp, #0x20]

----------------
IN: 
0x00083088:  5280004a  movz     w10, #0x2

----------------
IN: 
0x0008308c:  a90027e8  stp      x8, x9, [sp]

----------------
IN: 
0x00083090:  b0000028  adrp     x8, #0x88000

----------------
IN: 
0x00083094:  910ba108  add      x8, x8, #0x2e8

----------------
IN: 
0x00083098:  910003e9  mov      x9, sp

----------------
IN: 
0x0008309c:  a9042be8  stp      x8, x10, [sp, #0x40]

----------------
IN: 
0x000830a0:  52800028  movz     w8, #0x1

----------------
IN: 
0x000830a4:  a90623e9  stp      x9, x8, [sp, #0x60]

----------------
IN: 
0x000830a8:  9100a3e8  add      x8, sp, #0x28

----------------
IN: 
0x000830ac:  910103e0  add      x0, sp, #0x40

----------------
IN: 
0x000830b0:  9400074f  bl       #0x84dec

----------------
IN: 
0x00084eb0:  b400062a  cbz      x10, #0x84f74

----------------
IN: 
0x00084eb4:  f9400528  ldr      x8, [x9, #8]

----------------
IN: 
0x00084eb8:  b5000068  cbnz     x8, #0x84ec4

----------------
IN: 
0x00084ebc:  f10042bf  cmp      x21, #0x10

----------------
IN: 
0x00084ec0:  54000063  b.lo     #0x84ecc

----------------
IN: 
0x00084ecc:  aa1f03f5  mov      x21, xzr

----------------
IN: 
0x00084ed0:  14000008  b        #0x84ef0

----------------
IN: 
0x00084ef0:  910023f6  add      x22, sp, #8

----------------
IN: 
0x00084ef4:  52800020  movz     w0, #0x1

----------------
IN: 
0x00085bec:  a9400a68  ldp      x8, x2, [x19]

----------------
IN: 
0x00085bf0:  f9400c29  ldr      x9, [x1, #0x18]

----------------
IN: 
0x00085bf4:  aa0803e1  mov      x1, x8

----------------
IN: 
0x00085bf8:  d63f0120  blr      x9

----------------
IN: 
0x00085bfc:  37000380  tbnz     w0, #0, #0x85c6c

----------------
IN: 
0x00085c00:  aa1f03f8  mov      x24, xzr

----------------
IN: 
0x00085c04:  52800035  movz     w21, #0x1

----------------
IN: 
0x00085c08:  8b1802c8  add      x8, x22, x24

----------------
IN: 
0x00085c0c:  a9402100  ldp      x0, x8, [x8]

----------------
IN: 
0x00085c10:  910003e1  mov      x1, sp

----------------
IN: 
0x00085c14:  d63f0100  blr      x8

----------------
IN: 
0x00082fa8:  f9400008  ldr      x8, [x0]

----------------
IN: 
0x00082fac:  aa0103e2  mov      x2, x1

----------------
IN: 
0x00082fb0:  f9400809  ldr      x9, [x0, #0x10]

----------------
IN: 
0x00082fb4:  aa0803e0  mov      x0, x8

----------------
IN: 
0x00082fb8:  aa0903e1  mov      x1, x9

----------------
IN: 
0x00082fbc:  14000d46  b        #0x864d4

----------------
IN: 
0x000864d4:  aa0103e8  mov      x8, x1

----------------
IN: 
0x000864d8:  aa0003e1  mov      x1, x0

----------------
IN: 
0x000864dc:  aa0203e0  mov      x0, x2

----------------
IN: 
0x000864e0:  aa0803e2  mov      x2, x8

----------------
IN: 
0x000864e4:  17fffee6  b        #0x8607c

----------------
IN: 
0x0008607c:  a9bd5bf7  stp      x23, x22, [sp, #-0x30]!

----------------
IN: 
0x00086080:  a90153f5  stp      x21, x20, [sp, #0x10]

----------------
IN: 
0x00086084:  a9027bf3  stp      x19, x30, [sp, #0x20]

----------------
IN: 
0x00086088:  f9400008  ldr      x8, [x0]

----------------
IN: 
0x0008608c:  f9400809  ldr      x9, [x0, #0x10]

----------------
IN: 
0x00086090:  aa0203f4  mov      x20, x2

----------------
IN: 
0x00086094:  aa0003f3  mov      x19, x0

----------------
IN: 
0x00086098:  f100051f  cmp      x8, #1

----------------
IN: 
0x0008609c:  aa0103f5  mov      x21, x1

----------------
IN: 
0x000860a0:  54000081  b.ne     #0x860b0

----------------
IN: 
0x000860b0:  f100053f  cmp      x9, #1

----------------
IN: 
0x000860b4:  540013a1  b.ne     #0x86328

----------------
IN: 
0x00086328:  a9422260  ldp      x0, x8, [x19, #0x20]

----------------
IN: 
0x0008632c:  aa1503e1  mov      x1, x21

----------------
IN: 
0x00086330:  aa1403e2  mov      x2, x20

----------------
IN: 
0x00086334:  a9427bf3  ldp      x19, x30, [sp, #0x20]

----------------
IN: 
0x00086338:  f9400d03  ldr      x3, [x8, #0x18]

----------------
IN: 
0x0008633c:  a94153f5  ldp      x21, x20, [sp, #0x10]

----------------
IN: 
0x00086340:  a8c35bf7  ldp      x23, x22, [sp], #0x30

----------------
IN: 
0x00086344:  d61f0060  br       x3

----------------
IN: 
0x00084cf0:  ab030054  adds     x20, x2, x3

----------------
IN: 
0x00084cf4:  2a0403f5  mov      w21, w4

----------------
IN: 
0x00084cf8:  1a9f37e8  cset     w8, hs

----------------
IN: 
0x00084cfc:  360000c5  tbz      w5, #0, #0x84d14

----------------
IN: 
0x00084d00:  370000c8  tbnz     w8, #0, #0x84d18

----------------
IN: 
0x00084d04:  d37ff828  lsl      x8, x1, #1

----------------
IN: 
0x00084d08:  eb14011f  cmp      x8, x20

----------------
IN: 
0x00084d0c:  9a948114  csel     x20, x8, x20, hi

----------------
IN: 
0x00084d10:  14000009  b        #0x84d34

----------------
IN: 
0x00084d34:  b4000181  cbz      x1, #0x84d64

----------------
IN: 
0x00084d64:  52800021  movz     w1, #0x1

----------------
IN: 
0x00084d68:  aa1403e0  mov      x0, x20

----------------
IN: 
0x00084d6c:  97ffefc5  bl       #0x80c80

----------------
IN: 
0x00084d70:  b5fffee0  cbnz     x0, #0x84d4c

----------------
IN: 
0x00084d4c:  a90052c0  stp      x0, x20, [x22]

----------------
IN: 
0x00085c18:  370002a0  tbnz     w0, #0, #0x85c6c

----------------
IN: 
0x00085c1c:  eb1702bf  cmp      x21, x23

----------------
IN: 
0x00085c20:  54000162  b.hs     #0x85c4c

----------------
IN: 
0x00084d38:  f94002c0  ldr      x0, [x22]

----------------
IN: 
0x00084d3c:  52800022  movz     w2, #0x1

----------------
IN: 
0x00084d40:  aa1403e3  mov      x3, x20

----------------
IN: 
0x00084d44:  97ffefd7  bl       #0x80ca0

----------------
IN: 
0x00080ca0:  f81f0ffe  str      x30, [sp, #0xfffffffffffffff0]!

----------------
IN: 
0x00080ca4:  94000025  bl       #0x80d38

----------------
IN: 
0x00080d38:  a9bd5bf7  stp      x23, x22, [sp, #-0x30]!

----------------
IN: 
0x00080d3c:  a90153f5  stp      x21, x20, [sp, #0x10]

----------------
IN: 
0x00080d40:  a9027bf3  stp      x19, x30, [sp, #0x20]

----------------
IN: 
0x00080d44:  90000057  adrp     x23, #0x88000

----------------
IN: 
0x00080d48:  aa0003f3  mov      x19, x0

----------------
IN: 
0x00080d4c:  aa0303f5  mov      x21, x3

----------------
IN: 
0x00080d50:  aa0203f4  mov      x20, x2

----------------
IN: 
0x00080d54:  aa0103f6  mov      x22, x1

----------------
IN: 
0x00080d58:  f94402f7  ldr      x23, [x23, #0x800]

----------------
IN: 
0x00080d5c:  aa1703e0  mov      x0, x23

----------------
IN: 
0x00080d60:  94000fa4  bl       #0x84bf0

----------------
IN: 
0x00080d64:  12003e81  and      w1, w20, #0xffff

----------------
IN: 
0x00080d68:  2a1503e0  mov      w0, w21

----------------
IN: 
0x00080d6c:  9400009d  bl       #0x80fe0

----------------
IN: 
0x00080d70:  aa0003f4  mov      x20, x0

----------------
IN: 
0x00080d74:  aa1703e0  mov      x0, x23

----------------
IN: 
0x00080d78:  94000fa8  bl       #0x84c18

----------------
IN: 
0x00080d7c:  b40001d4  cbz      x20, #0x80db4

----------------
IN: 
0x00080d80:  eb1502df  cmp      x22, x21

----------------
IN: 
0x00080d84:  aa1403e0  mov      x0, x20

----------------
IN: 
0x00080d88:  9a9682a2  csel     x2, x21, x22, hi

----------------
IN: 
0x00080d8c:  aa1303e1  mov      x1, x19

----------------
IN: 
0x00080d90:  94001610  bl       #0x865d0

----------------
IN: 
0x00080d94:  90000055  adrp     x21, #0x88000

----------------
IN: 
0x00080d98:  f94402b5  ldr      x21, [x21, #0x800]

----------------
IN: 
0x00080d9c:  aa1503e0  mov      x0, x21

----------------
IN: 
0x00080da0:  94000f94  bl       #0x84bf0

----------------
IN: 
0x00080da4:  aa1303e0  mov      x0, x19

----------------
IN: 
0x00080da8:  940000f6  bl       #0x81180

----------------
IN: 
0x00081180:  f85f8000  ldur     x0, [x0, #0xfffffffffffffff8]

----------------
IN: 
0x00081184:  17ffffab  b        #0x81030

----------------
IN: 
0x00081030:  b40000e0  cbz      x0, #0x8104c

----------------
IN: 
0x00081034:  b85e0002  ldur     w2, [x0, #0xffffffffffffffe0]

----------------
IN: 
0x00081038:  5297dde1  movz     w1, #0xbeef

----------------
IN: 
0x0008103c:  72bbd5a1  movk     w1, #0xdead, lsl #16

----------------
IN: 
0x00081040:  d1008003  sub      x3, x0, #0x20

----------------
IN: 
0x00081044:  6b01005f  cmp      w2, w1

----------------
IN: 
0x00081048:  54000040  b.eq     #0x81050

----------------
IN: 
0x00081050:  b85e8001  ldur     w1, [x0, #0xffffffffffffffe8]

----------------
IN: 
0x00081054:  90000042  adrp     x2, #0x89000

----------------
IN: 
0x00081058:  f9404445  ldr      x5, [x2, #0x88]

----------------
IN: 
0x0008105c:  2a0103e4  mov      w4, w1

----------------
IN: 
0x00081060:  8b040066  add      x6, x3, x4

----------------
IN: 
0x00081064:  eb0500df  cmp      x6, x5

----------------
IN: 
0x00081068:  54000520  b.eq     #0x8110c

----------------
IN: 
0x0008106c:  7101003f  cmp      w1, #0x40

----------------
IN: 
0x00081070:  540005a9  b.ls     #0x81124

----------------
IN: 
0x00081074:  7104003f  cmp      w1, #0x100

----------------
IN: 
0x00081078:  540005a9  b.ls     #0x8112c

----------------
IN: 
0x0008112c:  52800021  movz     w1, #0x1

----------------
IN: 
0x00081130:  17ffffea  b        #0x810d8

----------------
IN: 
0x000810d8:  93407c21  sxtw     x1, w1

----------------
IN: 
0x000810dc:  90000042  adrp     x2, #0x89000

----------------
IN: 
0x000810e0:  91004042  add      x2, x2, #0x10

----------------
IN: 
0x000810e4:  f8617845  ldr      x5, [x2, x1, lsl #3]

----------------
IN: 
0x000810e8:  b4000185  cbz      x5, #0x81118

----------------
IN: 
0x00081118:  a93f7c1f  stp      xzr, xzr, [x0, #-0x10]

----------------
IN: 
0x0008111c:  f8217843  str      x3, [x2, x1, lsl #3]

----------------
IN: 
0x00081120:  17fffff6  b        #0x810f8

----------------
IN: 
0x000810f8:  90000041  adrp     x1, #0x89000

----------------
IN: 
0x000810fc:  f9404820  ldr      x0, [x1, #0x90]

----------------
IN: 
0x00081100:  cb040000  sub      x0, x0, x4

----------------
IN: 
0x00081104:  f9004820  str      x0, [x1, #0x90]

----------------
IN: 
0x00081108:  d65f03c0  ret      

----------------
IN: 
0x00080dac:  aa1503e0  mov      x0, x21

----------------
IN: 
0x00080db0:  94000f9a  bl       #0x84c18

----------------
IN: 
0x00080db4:  aa1403e0  mov      x0, x20

----------------
IN: 
0x00080db8:  a9427bf3  ldp      x19, x30, [sp, #0x20]

----------------
IN: 
0x00080dbc:  a94153f5  ldp      x21, x20, [sp, #0x10]

----------------
IN: 
0x00080dc0:  a8c35bf7  ldp      x23, x22, [sp], #0x30

----------------
IN: 
0x00080dc4:  d65f03c0  ret      

----------------
IN: 
0x00080ca8:  f84107fe  ldr      x30, [sp], #0x10

----------------
IN: 
0x00080cac:  d65f03c0  ret      

----------------
IN: 
0x00084d48:  b4000160  cbz      x0, #0x84d74

----------------
IN: 
0x000865f4:  aa1f03e8  mov      x8, xzr

----------------
IN: 
0x000830b4:  f9400fe1  ldr      x1, [sp, #0x18]

----------------
IN: 
0x000830b8:  b4000081  cbz      x1, #0x830c8

----------------
IN: 
0x000830bc:  f9400be0  ldr      x0, [sp, #0x10]

----------------
IN: 
0x000830c0:  52800022  movz     w2, #0x1

----------------
IN: 
0x000830c4:  97fff6f3  bl       #0x80c90

----------------
IN: 
0x00080c90:  f81f0ffe  str      x30, [sp, #0xfffffffffffffff0]!

----------------
IN: 
0x00080c94:  9400001b  bl       #0x80d00

----------------
IN: 
0x00080d00:  f81e0ff4  str      x20, [sp, #0xffffffffffffffe0]!

----------------
IN: 
0x00080d04:  a9017bf3  stp      x19, x30, [sp, #0x10]

----------------
IN: 
0x00080d08:  90000054  adrp     x20, #0x88000

----------------
IN: 
0x00080d0c:  aa0003f3  mov      x19, x0

----------------
IN: 
0x00080d10:  f9440294  ldr      x20, [x20, #0x800]

----------------
IN: 
0x00080d14:  aa1403e0  mov      x0, x20

----------------
IN: 
0x00080d18:  94000fb6  bl       #0x84bf0

----------------
IN: 
0x00080d1c:  aa1303e0  mov      x0, x19

----------------
IN: 
0x00080d20:  94000118  bl       #0x81180

----------------
IN: 
0x000810ec:  f9000ca3  str      x3, [x5, #0x18]

----------------
IN: 
0x000810f0:  a93f7c05  stp      x5, xzr, [x0, #-0x10]

----------------
IN: 
0x000810f4:  f8217843  str      x3, [x2, x1, lsl #3]

----------------
IN: 
0x00080d24:  a9417bf3  ldp      x19, x30, [sp, #0x10]

----------------
IN: 
0x00080d28:  aa1403e0  mov      x0, x20

----------------
IN: 
0x00080d2c:  f84207f4  ldr      x20, [sp], #0x20

----------------
IN: 
0x00080d30:  14000fba  b        #0x84c18

----------------
IN: 
0x00080c98:  f84107fe  ldr      x30, [sp], #0x10

----------------
IN: 
0x00080c9c:  d65f03c0  ret      

----------------
IN: 
0x000830c8:  a942a3f4  ldp      x20, x8, [sp, #0x28]

----------------
IN: 
0x000830cc:  f9401fe1  ldr      x1, [sp, #0x38]

----------------
IN: 
0x000830d0:  a90423f4  stp      x20, x8, [sp, #0x40]

----------------
IN: 
0x000830d4:  f9002be1  str      x1, [sp, #0x50]

----------------
IN: 
0x000830d8:  aa1403e0  mov      x0, x20

----------------
IN: 
0x000830dc:  940006af  bl       #0x84b98

----------------
IN: 
0x00084b98:  90000028  adrp     x8, #0x88000

----------------
IN: 
0x00084b9c:  9000002b  adrp     x11, #0x88000

----------------
IN: 
0x00084ba0:  9112e16b  add      x11, x11, #0x4b8

----------------
IN: 
0x00084ba4:  aa0103e2  mov      x2, x1

----------------
IN: 
0x00084ba8:  aa0003e1  mov      x1, x0

----------------
IN: 
0x00084bac:  f9440508  ldr      x8, [x8, #0x808]

----------------
IN: 
0x00084bb0:  f8410d09  ldr      x9, [x8, #0x10]!

----------------
IN: 
0x00084bb4:  f100013f  cmp      x9, #0

----------------
IN: 
0x00084bb8:  f940050a  ldr      x10, [x8, #8]

----------------
IN: 
0x00084bbc:  9a890108  csel     x8, x8, x9, eq

----------------
IN: 
0x00084bc0:  aa0803e0  mov      x0, x8

----------------
IN: 
0x00084bc4:  9a8a0169  csel     x9, x11, x10, eq

----------------
IN: 
0x00084bc8:  f9401123  ldr      x3, [x9, #0x20]

----------------
IN: 
0x00084bcc:  d61f0060  br       x3

----------------
IN: 
0x00083678:  f81c0ff8  str      x24, [sp, #0xffffffffffffffc0]!

----------------
IN: 
0x0008367c:  a9015bf7  stp      x23, x22, [sp, #0x10]

----------------
IN: 
0x00083680:  a90253f5  stp      x21, x20, [sp, #0x20]

----------------
IN: 
0x00083684:  a9037bf3  stp      x19, x30, [sp, #0x30]

----------------
IN: 
0x00083688:  39400008  ldrb     w8, [x0]

----------------
IN: 
0x0008368c:  7100011f  cmp      w8, #0

----------------
IN: 
0x00083690:  fa401844  ccmp     x2, #0, #4, ne

----------------
IN: 
0x00083694:  54000300  b.eq     #0x836f4

----------------
IN: 
0x00083698:  f0000008  adrp     x8, #0x86000

----------------
IN: 
0x0008369c:  f0000009  adrp     x9, #0x86000

----------------
IN: 
0x000836a0:  aa0103f3  mov      x19, x1

----------------
IN: 
0x000836a4:  8b020037  add      x23, x1, x2

----------------
IN: 
0x000836a8:  52800154  movz     w20, #0xa

----------------
IN: 
0x000836ac:  f944f115  ldr      x21, [x8, #0x9e0]

----------------
IN: 
0x000836b0:  f944f536  ldr      x22, [x9, #0x9e8]

----------------
IN: 
0x000836b4:  b94002a8  ldr      w8, [x21]

----------------
IN: 
0x000836b8:  91000678  add      x24, x19, #1

----------------
IN: 
0x000836bc:  36280128  tbz      w8, #5, #0x836e0

----------------
IN: 
0x000836c0:  39400268  ldrb     w8, [x19]

----------------
IN: 
0x000836c4:  aa1803f3  mov      x19, x24

----------------
IN: 
0x000836c8:  eb17031f  cmp      x24, x23

----------------
IN: 
0x000836cc:  b90002c8  str      w8, [x22]

----------------
IN: 
0x000836d0:  54000120  b.eq     #0x836f4

----------------
IN: 
0x000836d4:  b94002a8  ldr      w8, [x21]

----------------
IN: 
0x000836d8:  91000678  add      x24, x19, #1

----------------
IN: 
0x000836dc:  372fff28  tbnz     w8, #5, #0x4000836c0

----------------
IN: 
0x000836f4:  a9437bf3  ldp      x19, x30, [sp, #0x30]

----------------
IN: 
0x000836f8:  a94253f5  ldp      x21, x20, [sp, #0x20]

----------------
IN: 
0x000836fc:  a9415bf7  ldp      x23, x22, [sp, #0x10]

----------------
IN: 
0x00083700:  f84407f8  ldr      x24, [sp], #0x40

----------------
IN: 
0x00083704:  d65f03c0  ret      

----------------
IN: 
0x000830e0:  f94027e1  ldr      x1, [sp, #0x48]

----------------
IN: 
0x000830e4:  b4000081  cbz      x1, #0x830f4

----------------
IN: 
0x000830e8:  aa1403e0  mov      x0, x20

----------------
IN: 
0x000830ec:  52800022  movz     w2, #0x1

----------------
IN: 
0x000830f0:  97fff6e8  bl       #0x80c90

----------------
IN: 
0x0008110c:  f9004443  str      x3, [x2, #0x88]

----------------
IN: 
0x00081110:  b81e001f  stur     wzr, [x0, #0xffffffffffffffe0]

----------------
IN: 
0x00081114:  17fffff9  b        #0x810f8

----------------
IN: 
0x000830f4:  5284e200  movz     w0, #0x2710

----------------
IN: 
0x000830f8:  940002ce  bl       #0x83c30

----------------
IN: 
0x00083c30:  f0000008  adrp     x8, #0x86000

----------------
IN: 
0x00083c34:  f0000009  adrp     x9, #0x86000

----------------
IN: 
0x00083c38:  f945a908  ldr      x8, [x8, #0xb50]

----------------
IN: 
0x00083c3c:  f945ad29  ldr      x9, [x9, #0xb58]

----------------
IN: 
0x00083c40:  b940010a  ldr      w10, [x8]

----------------
IN: 
0x00083c44:  b940012b  ldr      w11, [x9]

----------------
IN: 
0x00083c48:  b3607d6a  bfi      x10, x11, #0x20, #0x20

----------------
IN: 
0x00083c4c:  ab00014a  adds     x10, x10, x0

----------------
IN: 
0x00083c50:  540000c0  b.eq     #0x83c68

----------------
IN: 
0x00083c54:  b940010b  ldr      w11, [x8]

----------------
IN: 
0x00083c58:  b940012c  ldr      w12, [x9]

----------------
IN: 
0x00083c5c:  b3607d8b  bfi      x11, x12, #0x20, #0x20

----------------
IN: 
0x00083c60:  eb0a017f  cmp      x11, x10

----------------
IN: 
0x00083c64:  54ffff83  b.lo     #0x83c54

----------------
IN: 
0x00083c68:  d65f03c0  ret      

----------------
IN: 
0x000830fc:  b0000034  adrp     x20, #0x88000

----------------
IN: 
0x00083100:  f9444294  ldr      x20, [x20, #0x880]

----------------
IN: 
0x00083104:  aa1403e0  mov      x0, x20

----------------
IN: 
0x00083108:  940006ba  bl       #0x84bf0

----------------
IN: 
0x0008310c:  91004280  add      x0, x20, #0x10

----------------
IN: 
0x00083110:  9400056e  bl       #0x846c8

----------------
IN: 
0x000846c8:  d0000008  adrp     x8, #0x86000

----------------
IN: 
0x000846cc:  d0000009  adrp     x9, #0x86000

----------------
IN: 
0x000846d0:  d000000a  adrp     x10, #0x86000

----------------
IN: 
0x000846d4:  d000000b  adrp     x11, #0x86000

----------------
IN: 
0x000846d8:  1280000c  movn     w12, #0

----------------
IN: 
0x000846dc:  f9474108  ldr      x8, [x8, #0xe80]

----------------
IN: 
0x000846e0:  f9474529  ldr      x9, [x9, #0xe88]

----------------
IN: 
0x000846e4:  f947494a  ldr      x10, [x10, #0xe90]

----------------
IN: 
0x000846e8:  f9474d6b  ldr      x11, [x11, #0xe98]

----------------
IN: 
0x000846ec:  b900010c  str      w12, [x8]

----------------
IN: 
0x000846f0:  d0000008  adrp     x8, #0x86000

----------------
IN: 
0x000846f4:  b900012c  str      w12, [x9]

----------------
IN: 
0x000846f8:  d0000009  adrp     x9, #0x86000

----------------
IN: 
0x000846fc:  b900014c  str      w12, [x10]

----------------
IN: 
0x00084700:  d5033fbf  dmb      sy

----------------
IN: 
0x00084704:  b900017f  str      wzr, [x11]

----------------
IN: 
0x00084708:  d000000a  adrp     x10, #0x86000

----------------
IN: 
0x0008470c:  d000000b  adrp     x11, #0x86000

----------------
IN: 
0x00084710:  f9475108  ldr      x8, [x8, #0xea0]

----------------
IN: 
0x00084714:  f9475529  ldr      x9, [x9, #0xea8]

----------------
IN: 
0x00084718:  5280010c  movz     w12, #0x8

----------------
IN: 
0x0008471c:  f947594a  ldr      x10, [x10, #0xeb0]

----------------
IN: 
0x00084720:  f9475d6b  ldr      x11, [x11, #0xeb8]

----------------
IN: 
0x00084724:  b900010c  str      w12, [x8]

----------------
IN: 
0x00084728:  b900012c  str      w12, [x9]

----------------
IN: 
0x0008472c:  b900014c  str      w12, [x10]

----------------
IN: 
0x00084730:  b900016c  str      w12, [x11]

----------------
IN: 
0x00084734:  d65f03c0  ret      

----------------
IN: 
0x00083114:  b0000020  adrp     x0, #0x88000

----------------
IN: 
0x00083118:  f9444000  ldr      x0, [x0, #0x880]

----------------
IN: 
0x0008311c:  940006bf  bl       #0x84c18

----------------
IN: 
0x00083120:  2a1303e0  mov      w0, w19

----------------
IN: 
0x00083124:  97fff82f  bl       #0x811e0

----------------
IN: 
0x000811e0:  d10243ff  sub      sp, sp, #0x90

----------------
IN: 
0x000811e4:  f9003bf4  str      x20, [sp, #0x70]

----------------
IN: 
0x000811e8:  a9087bf3  stp      x19, x30, [sp, #0x80]

----------------
IN: 
0x000811ec:  340000a0  cbz      w0, #0x81200

----------------
IN: 
0x00081200:  f0000028  adrp     x8, #0x88000

----------------
IN: 
0x00081204:  52800033  movz     w19, #0x1

----------------
IN: 
0x00081208:  910aa108  add      x8, x8, #0x2a8

----------------
IN: 
0x0008120c:  52800109  movz     w9, #0x8

----------------
IN: 
0x00081210:  910103e0  add      x0, sp, #0x40

----------------
IN: 
0x00081214:  a9057fff  stp      xzr, xzr, [sp, #0x50]

----------------
IN: 
0x00081218:  9100a3f4  add      x20, sp, #0x28

----------------
IN: 
0x0008121c:  a9044fe8  stp      x8, x19, [sp, #0x40]

----------------
IN: 
0x00081220:  9100a3e8  add      x8, sp, #0x28

----------------
IN: 
0x00081224:  a9067fe9  stp      x9, xzr, [sp, #0x60]

----------------
IN: 
0x00081228:  94000ef1  bl       #0x84dec

----------------
IN: 
0x00080e8c:  f9400823  ldr      x3, [x1, #0x10]

----------------
IN: 
0x00080e90:  f82478c3  str      x3, [x6, x4, lsl #3]

----------------
IN: 
0x00080e94:  b4000043  cbz      x3, #0x80e9c

----------------
IN: 
0x00080e98:  f9000c7f  str      xzr, [x3, #0x18]

----------------
IN: 
0x0008122c:  90000008  adrp     x8, #0x81000

----------------
IN: 
0x00081230:  52800049  movz     w9, #0x2

----------------
IN: 
0x00081234:  91068108  add      x8, x8, #0x1a0

----------------
IN: 
0x00081238:  a9057fff  stp      xzr, xzr, [sp, #0x50]

----------------
IN: 
0x0008123c:  a901a3f4  stp      x20, x8, [sp, #0x18]

----------------
IN: 
0x00081240:  f0000028  adrp     x8, #0x88000

----------------
IN: 
0x00081244:  910a2108  add      x8, x8, #0x288

----------------
IN: 
0x00081248:  a90427e8  stp      x8, x9, [sp, #0x40]

----------------
IN: 
0x0008124c:  910063e8  add      x8, sp, #0x18

----------------
IN: 
0x00081250:  a9064fe8  stp      x8, x19, [sp, #0x60]

----------------
IN: 
0x00081254:  910003e8  mov      x8, sp

----------------
IN: 
0x00081258:  910103e0  add      x0, sp, #0x40

----------------
IN: 
0x0008125c:  94000ee4  bl       #0x84dec

----------------
IN: 
0x000811a0:  f9400008  ldr      x8, [x0]

----------------
IN: 
0x000811a4:  aa0103e2  mov      x2, x1

----------------
IN: 
0x000811a8:  f9400809  ldr      x9, [x0, #0x10]

----------------
IN: 
0x000811ac:  aa0803e0  mov      x0, x8

----------------
IN: 
0x000811b0:  aa0903e1  mov      x1, x9

----------------
IN: 
0x000811b4:  140014c8  b        #0x864d4

----------------
IN: 
0x00081260:  f9401be1  ldr      x1, [sp, #0x30]

----------------
IN: 
0x00081264:  b4000081  cbz      x1, #0x81274

----------------
IN: 
0x00081268:  f94017e0  ldr      x0, [sp, #0x28]

----------------
IN: 
0x0008126c:  52800022  movz     w2, #0x1

----------------
IN: 
0x00081270:  97fffe88  bl       #0x80c90

----------------
IN: 
0x00081274:  a94023f3  ldp      x19, x8, [sp]

----------------
IN: 
0x00081278:  f9400be1  ldr      x1, [sp, #0x10]

----------------
IN: 
0x0008127c:  a90423f3  stp      x19, x8, [sp, #0x40]

----------------
IN: 
0x00081280:  f9002be1  str      x1, [sp, #0x50]

----------------
IN: 
0x00081284:  aa1303e0  mov      x0, x19

----------------
IN: 
0x00081288:  94000e44  bl       #0x84b98

----------------
IN: 
0x0008128c:  f94027e1  ldr      x1, [sp, #0x48]

----------------
IN: 
0x00081290:  b4000081  cbz      x1, #0x812a0

----------------
IN: 
0x00081294:  aa1303e0  mov      x0, x19

----------------
IN: 
0x00081298:  52800022  movz     w2, #0x1

----------------
IN: 
0x0008129c:  97fffe7d  bl       #0x80c90

----------------
IN: 
0x000812a0:  f0000033  adrp     x19, #0x88000

----------------
IN: 
0x000812a4:  f9441273  ldr      x19, [x19, #0x820]

----------------
IN: 
0x000812a8:  aa1303e0  mov      x0, x19

----------------
IN: 
0x000812ac:  94000e51  bl       #0x84bf0

----------------
IN: 
0x000812b0:  91004260  add      x0, x19, #0x10

----------------
IN: 
0x000812b4:  9400005b  bl       #0x81420

----------------
IN: 
0x00081420:  d100c3ff  sub      sp, sp, #0x30

----------------
IN: 
0x00081424:  f9000bf4  str      x20, [sp, #0x10]

----------------
IN: 
0x00081428:  a9027bf3  stp      x19, x30, [sp, #0x20]

----------------
IN: 
0x0008142c:  aa0003f3  mov      x19, x0

----------------
IN: 
0x00081430:  52800200  movz     w0, #0x10

----------------
IN: 
0x00081434:  52800201  movz     w1, #0x10

----------------
IN: 
0x00081438:  97fffe12  bl       #0x80c80

----------------
IN: 
0x00080e00:  f110003f  cmp      x1, #0x400

----------------
IN: 
0x00080e04:  54000a69  b.ls     #0x80f50

----------------
IN: 
0x00080e08:  f140043f  cmp      x1, #1, lsl #12

----------------
IN: 
0x00080e0c:  54000aa9  b.ls     #0x80f60

----------------
IN: 
0x00080e10:  f140103f  cmp      x1, #4, lsl #12

----------------
IN: 
0x00080e14:  54000ae9  b.ls     #0x80f70

----------------
IN: 
0x00080e18:  f140403f  cmp      x1, #0x10, lsl #12

----------------
IN: 
0x00080e1c:  540008a9  b.ls     #0x80f30

----------------
IN: 
0x00080e20:  f141003f  cmp      x1, #0x40, lsl #12

----------------
IN: 
0x00080e24:  54000ae9  b.ls     #0x80f80

----------------
IN: 
0x00080f80:  d2a00085  movz     x5, #0x4, lsl #16

----------------
IN: 
0x00080f84:  528000c1  movz     w1, #0x6

----------------
IN: 
0x00080f88:  2a0503e9  mov      w9, w5

----------------
IN: 
0x00080f8c:  17ffffb6  b        #0x80e64

----------------
IN: 
0x0008143c:  b4000620  cbz      x0, #0x81500

----------------
IN: 
0x00081440:  910003e8  mov      x8, sp

----------------
IN: 
0x00081444:  aa0003f4  mov      x20, x0

----------------
IN: 
0x00081448:  a9007c1f  stp      xzr, xzr, [x0]

----------------
IN: 
0x0008144c:  94000de7  bl       #0x84be8

----------------
IN: 
0x00084be8:  3900011f  strb     wzr, [x8]

----------------
IN: 
0x00084bec:  d65f03c0  ret      

----------------
IN: 
0x00081450:  52800600  movz     w0, #0x30

----------------
IN: 
0x00081454:  52800201  movz     w1, #0x10

----------------
IN: 
0x00081458:  97fffe0a  bl       #0x80c80

----------------
IN: 
0x0008145c:  b40005a0  cbz      x0, #0x81510

----------------
IN: 
0x00081460:  52800028  movz     w8, #0x1

----------------
IN: 
0x00081464:  3dc003e1  ldr      q1, [sp]

----------------
IN: 
0x00081468:  a9025014  stp      x20, x20, [x0, #0x20]

----------------
IN: 
0x0008146c:  4e080d00  dup      v0.2d, x8

----------------
IN: 
0x00081470:  ad000400  stp      q0, q1, [x0]

----------------
IN: 
0x00081474:  c85f7c08  ldxr     x8, [x0]

----------------
IN: 
0x00081478:  91000509  add      x9, x8, #1

----------------
IN: 
0x0008147c:  c80a7c09  stxr     w10, x9, [x0]

----------------
IN: 
0x00081480:  35ffffaa  cbnz     w10, #0x81474

----------------
IN: 
0x00081484:  b7f804e8  tbnz     x8, #0x3f, #0x81520

----------------
IN: 
0x00081488:  f9400268  ldr      x8, [x19]

----------------
IN: 
0x0008148c:  f9000fe0  str      x0, [sp, #0x18]

----------------
IN: 
0x00081490:  f9000260  str      x0, [x19]

----------------
IN: 
0x00081494:  f90003e8  str      x8, [sp]

----------------
IN: 
0x00081498:  b4000128  cbz      x8, #0x814bc

----------------
IN: 
0x000814bc:  f9400fe9  ldr      x9, [sp, #0x18]

----------------
IN: 
0x000814c0:  f9400668  ldr      x8, [x19, #8]

----------------
IN: 
0x000814c4:  f9000669  str      x9, [x19, #8]

----------------
IN: 
0x000814c8:  f90003e8  str      x8, [sp]

----------------
IN: 
0x000814cc:  b4000128  cbz      x8, #0x814f0

----------------
IN: 
0x000814f0:  a9427bf3  ldp      x19, x30, [sp, #0x20]

----------------
IN: 
0x000814f4:  f9400bf4  ldr      x20, [sp, #0x10]

----------------
IN: 
0x000814f8:  9100c3ff  add      sp, sp, #0x30

----------------
IN: 
0x000814fc:  d65f03c0  ret      

----------------
IN: 
0x000812b8:  aa1303e0  mov      x0, x19

----------------
IN: 
0x000812bc:  94000e57  bl       #0x84c18

----------------
IN: 
0x000812c0:  a9487bf3  ldp      x19, x30, [sp, #0x80]

----------------
IN: 
0x000812c4:  f9403bf4  ldr      x20, [sp, #0x70]

----------------
IN: 
0x000812c8:  910243ff  add      sp, sp, #0x90

----------------
IN: 
0x000812cc:  d65f03c0  ret      

----------------
IN: 
0x00083128:  2a1303e0  mov      w0, w19

----------------
IN: 
0x0008312c:  97fff875  bl       #0x81300

----------------
IN: 
0x00081300:  f81f0ffe  str      x30, [sp, #0xfffffffffffffff0]!

----------------
IN: 
0x00081304:  97ffffad  bl       #0x811b8

----------------
IN: 
0x000811b8:  a9bf7bf3  stp      x19, x30, [sp, #-0x10]!

----------------
IN: 
0x000811bc:  35000040  cbnz     w0, #0x811c4

----------------
IN: 
0x000811c0:  97fffe9e  bl       #0x80c38

----------------
IN: 
0x00080c38:  90000048  adrp     x8, #0x88000

----------------
IN: 
0x00080c3c:  f9441108  ldr      x8, [x8, #0x820]

----------------
IN: 
0x00080c40:  91004100  add      x0, x8, #0x10

----------------
IN: 
0x00080c44:  17fffdb1  b        #0x80308

----------------
IN: 
0x00080308:  d101c3ff  sub      sp, sp, #0x70

----------------
IN: 
0x0008030c:  f9002bf4  str      x20, [sp, #0x50]

----------------
IN: 
0x00080310:  a9067bf3  stp      x19, x30, [sp, #0x60]

----------------
IN: 
0x00080314:  52800028  movz     w8, #0x1

----------------
IN: 
0x00080318:  3900c3ff  strb     wzr, [sp, #0x30]

----------------
IN: 
0x0008031c:  4e080d00  dup      v0.2d, x8

----------------
IN: 
0x00080320:  90000048  adrp     x8, #0x88000

----------------
IN: 
0x00080324:  9105c108  add      x8, x8, #0x170

----------------
IN: 
0x00080328:  4e181d00  ins      v0.d[1], x8

----------------
IN: 
0x0008032c:  3d8003e0  str      q0, [sp]

----------------
IN: 
0x00080330:  f94003e8  ldr      x8, [sp]

----------------
IN: 
0x00080334:  f9400014  ldr      x20, [x0]

----------------
IN: 
0x00080338:  f9001fe8  str      x8, [sp, #0x38]

----------------
IN: 
0x0008033c:  f94007e8  ldr      x8, [sp, #8]

----------------
IN: 
0x00080340:  f90023e8  str      x8, [sp, #0x40]

----------------
IN: 
0x00080344:  b4000434  cbz      x20, #0x803c8

----------------
IN: 
0x00080348:  c85f7e88  ldxr     x8, [x20]

----------------
IN: 
0x0008034c:  91000509  add      x9, x8, #1

----------------
IN: 
0x00080350:  c80a7e89  stxr     w10, x9, [x20]

----------------
IN: 
0x00080354:  35ffffaa  cbnz     w10, #0x80348

----------------
IN: 
0x00080358:  b7f80468  tbnz     x8, #0x3f, #0x803e4

----------------
IN: 
0x0008035c:  ad4187e0  ldp      q0, q1, [sp, #0x30]

----------------
IN: 
0x00080360:  52800800  movz     w0, #0x40

----------------
IN: 
0x00080364:  52800201  movz     w1, #0x10

----------------
IN: 
0x00080368:  ad0087e0  stp      q0, q1, [sp, #0x10]

----------------
IN: 
0x0008036c:  94000245  bl       #0x80c80

----------------
IN: 
0x00080370:  b40003e0  cbz      x0, #0x803ec

----------------
IN: 
0x00080374:  52800028  movz     w8, #0x1

----------------
IN: 
0x00080378:  aa0003f3  mov      x19, x0

----------------
IN: 
0x0008037c:  ad4087e2  ldp      q2, q1, [sp, #0x10]

----------------
IN: 
0x00080380:  f9001814  str      x20, [x0, #0x30]

----------------
IN: 
0x00080384:  4e080d00  dup      v0.2d, x8

----------------
IN: 
0x00080388:  52800201  movz     w1, #0x10

----------------
IN: 
0x0008038c:  ad008402  stp      q2, q1, [x0, #0x10]

----------------
IN: 
0x00080390:  3d800000  str      q0, [x0]

----------------
IN: 
0x00080394:  52800200  movz     w0, #0x10

----------------
IN: 
0x00080398:  9400023a  bl       #0x80c80

----------------
IN: 
0x0008039c:  b4000300  cbz      x0, #0x803fc

----------------
IN: 
0x000803a0:  9100a288  add      x8, x20, #0x28

----------------
IN: 
0x000803a4:  a9004c1f  stp      xzr, x19, [x0]

----------------
IN: 
0x000803a8:  c85ffd09  ldaxr    x9, [x8]

----------------
IN: 
0x000803ac:  c80afd00  stlxr    w10, x0, [x8]

----------------
IN: 
0x000803b0:  35ffffca  cbnz     w10, #0x803a8

----------------
IN: 
0x000803b4:  f9000120  str      x0, [x9]

----------------
IN: 
0x000803b8:  a9467bf3  ldp      x19, x30, [sp, #0x60]

----------------
IN: 
0x000803bc:  f9402bf4  ldr      x20, [sp, #0x50]

----------------
IN: 
0x000803c0:  9101c3ff  add      sp, sp, #0x70

----------------
IN: 
0x000803c4:  d65f03c0  ret      

----------------
IN: 
0x000811c4:  94000e6f  bl       #0x84b80

----------------
IN: 
0x00084b80:  d50342ff  msr      daifclr, #2

----------------
IN: 
0x00084b84:  d5033fdf  isb      

----------------
IN: 
0x00084b88:  d50341ff  msr      daifclr, #1

----------------
IN: 
0x00084b8c:  d5033fdf  isb      

----------------
IN: 
0x00084b90:  d65f03c0  ret      

----------------
IN: 
0x000811c8:  f0000028  adrp     x8, #0x88000

----------------
IN: 
0x000811cc:  f9441108  ldr      x8, [x8, #0x820]

----------------
IN: 
0x000811d0:  91004113  add      x19, x8, #0x10

----------------
IN: 
0x000811d4:  aa1303e0  mov      x0, x19

----------------
IN: 
0x000811d8:  940000da  bl       #0x81540

----------------
IN: 
0x00081540:  d10343ff  sub      sp, sp, #0xd0

----------------
IN: 
0x00081544:  f9003bfc  str      x28, [sp, #0x70]

----------------
IN: 
0x00081548:  a9086bfb  stp      x27, x26, [sp, #0x80]

----------------
IN: 
0x0008154c:  a90963f9  stp      x25, x24, [sp, #0x90]

----------------
IN: 
0x00081550:  a90a5bf7  stp      x23, x22, [sp, #0xa0]

----------------
IN: 
0x00081554:  a90b53f5  stp      x21, x20, [sp, #0xb0]

----------------
IN: 
0x00081558:  a90c7bf3  stp      x19, x30, [sp, #0xc0]

----------------
IN: 
0x0008155c:  f9400408  ldr      x8, [x0, #8]

----------------
IN: 
0x00081560:  b4000cc8  cbz      x8, #0x816f8

----------------
IN: 
0x00081564:  90000009  adrp     x9, #0x81000

----------------
IN: 
0x00081568:  90000018  adrp     x24, #0x81000

----------------
IN: 
0x0008156c:  91300129  add      x9, x9, #0xc00

----------------
IN: 
0x00081570:  90000019  adrp     x25, #0x81000

----------------
IN: 
0x00081574:  aa0003f3  mov      x19, x0

----------------
IN: 
0x00081578:  52800036  movz     w22, #0x1

----------------
IN: 
0x0008157c:  910123f7  add      x23, sp, #0x48

----------------
IN: 
0x00081580:  91342318  add      x24, x24, #0xd08

----------------
IN: 
0x00081584:  9e670120  fmov     d0, x9

----------------
IN: 
0x00081588:  90000009  adrp     x9, #0x81000

----------------
IN: 
0x0008158c:  91326129  add      x9, x9, #0xc98

----------------
IN: 
0x00081590:  9136c339  add      x25, x25, #0xdb0

----------------
IN: 
0x00081594:  4e181d20  ins      v0.d[1], x9

----------------
IN: 
0x00081598:  3d8003e0  str      q0, [sp]

----------------
IN: 
0x0008159c:  14000003  b        #0x815a8

----------------
IN: 
0x000815a8:  91004100  add      x0, x8, #0x10

----------------
IN: 
0x000815ac:  94000119  bl       #0x81a10

----------------
IN: 
0x00081a10:  d10103ff  sub      sp, sp, #0x40

----------------
IN: 
0x00081a14:  a90253f5  stp      x21, x20, [sp, #0x20]

----------------
IN: 
0x00081a18:  a9037bf3  stp      x19, x30, [sp, #0x30]

----------------
IN: 
0x00081a1c:  aa0003f3  mov      x19, x0

----------------
IN: 
0x00081a20:  94000c74  bl       #0x84bf0

----------------
IN: 
0x00081a24:  52800200  movz     w0, #0x10

----------------
IN: 
0x00081a28:  52800201  movz     w1, #0x10

----------------
IN: 
0x00081a2c:  97fffc95  bl       #0x80c80

----------------
IN: 
0x00081a30:  b4000980  cbz      x0, #0x81b60

----------------
IN: 
0x00081a34:  aa0003f5  mov      x21, x0

----------------
IN: 
0x00081a38:  91004268  add      x8, x19, #0x10

----------------
IN: 
0x00081a3c:  a9007c1f  stp      xzr, xzr, [x0]

----------------
IN: 
0x00081a40:  c85ffd14  ldaxr    x20, [x8]

----------------
IN: 
0x00081a44:  c809fd15  stlxr    w9, x21, [x8]

----------------
IN: 
0x00081a48:  35ffffc9  cbnz     w9, #0x81a40

----------------
IN: 
0x00081a4c:  f9400289  ldr      x9, [x20]

----------------
IN: 
0x00081a50:  b40004e9  cbz      x9, #0x81aec

----------------
IN: 
0x00081a54:  c89ffd09  stlr     x9, [x8]

----------------
IN: 
0x00081a58:  f9400528  ldr      x8, [x9, #8]

----------------
IN: 
0x00081a5c:  f900053f  str      xzr, [x9, #8]

----------------
IN: 
0x00081a60:  f90007e8  str      x8, [sp, #8]

----------------
IN: 
0x00081a64:  b4000868  cbz      x8, #0x81b70

----------------
IN: 
0x00081a68:  aa1403e0  mov      x0, x20

----------------
IN: 
0x00081a6c:  f9000fe8  str      x8, [sp, #0x18]

----------------
IN: 
0x00081a70:  f8408c08  ldr      x8, [x0, #8]!

----------------
IN: 
0x00081a74:  b4000108  cbz      x8, #0x81a94

----------------
IN: 
0x00081a94:  aa1403e0  mov      x0, x20

----------------
IN: 
0x00081a98:  52800201  movz     w1, #0x10

----------------
IN: 
0x00081a9c:  52800202  movz     w2, #0x10

----------------
IN: 
0x00081aa0:  97fffc7c  bl       #0x80c90

----------------
IN: 
0x0008107c:  7110003f  cmp      w1, #0x400

----------------
IN: 
0x00081080:  540005a9  b.ls     #0x81134

----------------
IN: 
0x00081084:  7140043f  cmp      w1, #1, lsl #12

----------------
IN: 
0x00081088:  540005a9  b.ls     #0x8113c

----------------
IN: 
0x0008108c:  7140103f  cmp      w1, #4, lsl #12

----------------
IN: 
0x00081090:  540005a9  b.ls     #0x81144

----------------
IN: 
0x00081094:  7140403f  cmp      w1, #0x10, lsl #12

----------------
IN: 
0x00081098:  540005a9  b.ls     #0x8114c

----------------
IN: 
0x0008109c:  7141003f  cmp      w1, #0x40, lsl #12

----------------
IN: 
0x000810a0:  540005a9  b.ls     #0x81154

----------------
IN: 
0x00081154:  528000c1  movz     w1, #0x6

----------------
IN: 
0x00081158:  17ffffe0  b        #0x810d8

----------------
IN: 
0x00081aa4:  aa1503e0  mov      x0, x21

----------------
IN: 
0x00081aa8:  f8408c08  ldr      x8, [x0, #8]!

----------------
IN: 
0x00081aac:  b4000108  cbz      x8, #0x81acc

----------------
IN: 
0x00081acc:  aa1503e0  mov      x0, x21

----------------
IN: 
0x00081ad0:  52800201  movz     w1, #0x10

----------------
IN: 
0x00081ad4:  52800202  movz     w2, #0x10

----------------
IN: 
0x00081ad8:  97fffc6e  bl       #0x80c90

----------------
IN: 
0x00081adc:  f9400fe8  ldr      x8, [sp, #0x18]

----------------
IN: 
0x00081ae0:  52800029  movz     w9, #0x1

----------------
IN: 
0x00081ae4:  a900a3e9  stp      x9, x8, [sp, #8]

----------------
IN: 
0x00081ae8:  14000017  b        #0x81b44

----------------
IN: 
0x00081b44:  aa1303e0  mov      x0, x19

----------------
IN: 
0x00081b48:  94000c34  bl       #0x84c18

----------------
IN: 
0x00081b4c:  a94087e0  ldp      x0, x1, [sp, #8]

----------------
IN: 
0x00081b50:  a9437bf3  ldp      x19, x30, [sp, #0x30]

----------------
IN: 
0x00081b54:  a94253f5  ldp      x21, x20, [sp, #0x20]

----------------
IN: 
0x00081b58:  910103ff  add      sp, sp, #0x40

----------------
IN: 
0x00081b5c:  d65f03c0  ret      

----------------
IN: 
0x000815b0:  f100041f  cmp      x0, #1

----------------
IN: 
0x000815b4:  9a9f003b  csel     x27, x1, xzr, eq

----------------
IN: 
0x000815b8:  f90013fb  str      x27, [sp, #0x20]

----------------
IN: 
0x000815bc:  b40008fb  cbz      x27, #0x816d8

----------------
IN: 
0x000815c0:  9100437a  add      x26, x27, #0x10

----------------
IN: 
0x000815c4:  f90017fb  str      x27, [sp, #0x28]

----------------
IN: 
0x000815c8:  085fff48  ldaxrb   w8, [x26]

----------------
IN: 
0x000815cc:  0809ff56  stlxrb   w9, w22, [x26]

----------------
IN: 
0x000815d0:  7100013f  cmp      w9, #0

----------------
IN: 
0x000815d4:  7a400900  ccmp     w8, #0, #0, eq

----------------
IN: 
0x000815d8:  54ffff81  b.ne     #0x815c8

----------------
IN: 
0x000815dc:  aa1b03fc  mov      x28, x27

----------------
IN: 
0x000815e0:  f9001bfa  str      x26, [sp, #0x30]

----------------
IN: 
0x000815e4:  f8418f94  ldr      x20, [x28, #0x18]!

----------------
IN: 
0x000815e8:  f9400795  ldr      x21, [x28, #8]

----------------
IN: 
0x000815ec:  a9007f9f  stp      xzr, xzr, [x28]

----------------
IN: 
0x000815f0:  b40005b4  cbz      x20, #0x816a4

----------------
IN: 
0x000815f4:  f94017e8  ldr      x8, [sp, #0x28]

----------------
IN: 
0x000815f8:  3dc003e0  ldr      q0, [sp]

----------------
IN: 
0x000815fc:  a903d7f4  stp      x20, x21, [sp, #0x38]

----------------
IN: 
0x00081600:  a90667f8  stp      x24, x25, [sp, #0x60]

----------------
IN: 
0x00081604:  91004108  add      x8, x8, #0x10

----------------
IN: 
0x00081608:  3d8007e0  str      q0, [sp, #0x10]

----------------
IN: 
0x0008160c:  f90027e8  str      x8, [sp, #0x48]

----------------
IN: 
0x00081610:  f9400be8  ldr      x8, [sp, #0x10]

----------------
IN: 
0x00081614:  f9002be8  str      x8, [sp, #0x50]

----------------
IN: 
0x00081618:  f9400fe8  ldr      x8, [sp, #0x18]

----------------
IN: 
0x0008161c:  f9400ea9  ldr      x9, [x21, #0x18]

----------------
IN: 
0x00081620:  f9003ff7  str      x23, [sp, #0x78]

----------------
IN: 
0x00081624:  f9002fe8  str      x8, [sp, #0x58]

----------------
IN: 
0x00081628:  9101e3e1  add      x1, sp, #0x78

----------------
IN: 
0x0008162c:  aa1403e0  mov      x0, x20

----------------
IN: 
0x00081630:  d63f0120  blr      x9

----------------
IN: 
0x000805a0:  d10243ff  sub      sp, sp, #0x90

----------------
IN: 
0x000805a4:  a906d3ff  stp      xzr, x20, [sp, #0x68]

----------------
IN: 
0x000805a8:  a9087bf3  stp      x19, x30, [sp, #0x80]

----------------
IN: 
0x000805ac:  90000048  adrp     x8, #0x88000

----------------
IN: 
0x000805b0:  52800033  movz     w19, #0x1

----------------
IN: 
0x000805b4:  91082108  add      x8, x8, #0x208

----------------
IN: 
0x000805b8:  52800109  movz     w9, #0x8

----------------
IN: 
0x000805bc:  910103e0  add      x0, sp, #0x40

----------------
IN: 
0x000805c0:  a9057fff  stp      xzr, xzr, [sp, #0x50]

----------------
IN: 
0x000805c4:  9100a3f4  add      x20, sp, #0x28

----------------
IN: 
0x000805c8:  a9044fe8  stp      x8, x19, [sp, #0x40]

----------------
IN: 
0x000805cc:  9100a3e8  add      x8, sp, #0x28

----------------
IN: 
0x000805d0:  f90033e9  str      x9, [sp, #0x60]

----------------
IN: 
0x000805d4:  94001206  bl       #0x84dec

----------------
IN: 
0x000805d8:  90000008  adrp     x8, #0x80000

----------------
IN: 
0x000805dc:  52800049  movz     w9, #0x2

----------------
IN: 
0x000805e0:  91162108  add      x8, x8, #0x588

----------------
IN: 
0x000805e4:  a9057fff  stp      xzr, xzr, [sp, #0x50]

----------------
IN: 
0x000805e8:  a901a3f4  stp      x20, x8, [sp, #0x18]

----------------
IN: 
0x000805ec:  90000048  adrp     x8, #0x88000

----------------
IN: 
0x000805f0:  9107a108  add      x8, x8, #0x1e8

----------------
IN: 
0x000805f4:  a90427e8  stp      x8, x9, [sp, #0x40]

----------------
IN: 
0x000805f8:  910063e8  add      x8, sp, #0x18

----------------
IN: 
0x000805fc:  a9064fe8  stp      x8, x19, [sp, #0x60]

----------------
IN: 
0x00080600:  910003e8  mov      x8, sp

----------------
IN: 
0x00080604:  910103e0  add      x0, sp, #0x40

----------------
IN: 
0x00080608:  940011f9  bl       #0x84dec

----------------
IN: 
0x00080588:  f9400008  ldr      x8, [x0]

----------------
IN: 
0x0008058c:  aa0103e2  mov      x2, x1

----------------
IN: 
0x00080590:  f9400809  ldr      x9, [x0, #0x10]

----------------
IN: 
0x00080594:  aa0803e0  mov      x0, x8

----------------
IN: 
0x00080598:  aa0903e1  mov      x1, x9

----------------
IN: 
0x0008059c:  140017ce  b        #0x864d4

----------------
IN: 
0x00081124:  52800001  movz     w1, #0

----------------
IN: 
0x00081128:  17ffffec  b        #0x810d8

----------------
IN: 
0x0008060c:  f9401be1  ldr      x1, [sp, #0x30]

----------------
IN: 
0x00080610:  b4000081  cbz      x1, #0x80620

----------------
IN: 
0x00080614:  f94017e0  ldr      x0, [sp, #0x28]

----------------
IN: 
0x00080618:  52800022  movz     w2, #0x1

----------------
IN: 
0x0008061c:  9400019d  bl       #0x80c90

----------------
IN: 
0x00080620:  a94023f3  ldp      x19, x8, [sp]

----------------
IN: 
0x00080624:  f9400be1  ldr      x1, [sp, #0x10]

----------------
IN: 
0x00080628:  a90423f3  stp      x19, x8, [sp, #0x40]

----------------
IN: 
0x0008062c:  f9002be1  str      x1, [sp, #0x50]

----------------
IN: 
0x00080630:  aa1303e0  mov      x0, x19

----------------
IN: 
0x00080634:  94001159  bl       #0x84b98

----------------
IN: 
0x00080638:  f94027e1  ldr      x1, [sp, #0x48]

----------------
IN: 
0x0008063c:  b4000081  cbz      x1, #0x8064c

----------------
IN: 
0x00080640:  aa1303e0  mov      x0, x19

----------------
IN: 
0x00080644:  52800022  movz     w2, #0x1

----------------
IN: 
0x00080648:  94000192  bl       #0x80c90

----------------
IN: 
0x0008064c:  528000a0  movz     w0, #0x5

----------------
IN: 
0x00080650:  94000126  bl       #0x80ae8

----------------
IN: 
0x00080ae8:  d101c3ff  sub      sp, sp, #0x70

----------------
IN: 
0x00080aec:  a90363f9  stp      x25, x24, [sp, #0x30]

----------------
IN: 
0x00080af0:  a9045bf7  stp      x23, x22, [sp, #0x40]

----------------
IN: 
0x00080af4:  a90553f5  stp      x21, x20, [sp, #0x50]

----------------
IN: 
0x00080af8:  a9067bf3  stp      x19, x30, [sp, #0x60]

----------------
IN: 
0x00080afc:  2a0003f3  mov      w19, w0

----------------
IN: 
0x00080b00:  910043e8  add      x8, sp, #0x10

----------------
IN: 
0x00080b04:  2a1f03e0  mov      w0, wzr

----------------
IN: 
0x00080b08:  94001046  bl       #0x84c20

----------------
IN: 
0x00084c20:  3900011f  strb     wzr, [x8]

----------------
IN: 
0x00084c24:  79000500  strh     w0, [x8, #2]

----------------
IN: 
0x00084c28:  d65f03c0  ret      

----------------
IN: 
0x00080b0c:  52800400  movz     w0, #0x20

----------------
IN: 
0x00080b10:  52800201  movz     w1, #0x10

----------------
IN: 
0x00080b14:  9400005b  bl       #0x80c80

----------------
IN: 
0x00080b18:  b4000780  cbz      x0, #0x80c08

----------------
IN: 
0x00080b1c:  52800028  movz     w8, #0x1

----------------
IN: 
0x00080b20:  3dc007e1  ldr      q1, [sp, #0x10]

----------------
IN: 
0x00080b24:  f90007e0  str      x0, [sp, #8]

----------------
IN: 
0x00080b28:  4e080d00  dup      v0.2d, x8

----------------
IN: 
0x00080b2c:  ad000400  stp      q0, q1, [x0]

----------------
IN: 
0x00080b30:  94000c56  bl       #0x83c88

----------------
IN: 
0x00083c88:  f0000008  adrp     x8, #0x86000

----------------
IN: 
0x00083c8c:  f0000009  adrp     x9, #0x86000

----------------
IN: 
0x00083c90:  f945a908  ldr      x8, [x8, #0xb50]

----------------
IN: 
0x00083c94:  f945ad29  ldr      x9, [x9, #0xb58]

----------------
IN: 
0x00083c98:  b9400100  ldr      w0, [x8]

----------------
IN: 
0x00083c9c:  b9400128  ldr      w8, [x9]

----------------
IN: 
0x00083ca0:  b3607d00  bfi      x0, x8, #0x20, #0x20

----------------
IN: 
0x00083ca4:  d65f03c0  ret      

----------------
IN: 
0x00080b34:  90000056  adrp     x22, #0x88000

----------------
IN: 
0x00080b38:  aa0003f4  mov      x20, x0

----------------
IN: 
0x00080b3c:  f94412d6  ldr      x22, [x22, #0x820]

----------------
IN: 
0x00080b40:  340002d3  cbz      w19, #0x80b98

----------------
IN: 
0x00080b44:  d0000029  adrp     x9, #0x86000

----------------
IN: 
0x00080b48:  2a1f03e8  mov      w8, wzr

----------------
IN: 
0x00080b4c:  910042d5  add      x21, x22, #0x10

----------------
IN: 
0x00080b50:  f9437d37  ldr      x23, [x9, #0x6f8]

----------------
IN: 
0x00080b54:  d360fef8  lsr      x24, x23, #0x20

----------------
IN: 
0x00080b58:  f94007e9  ldr      x9, [sp, #8]

----------------
IN: 
0x00080b5c:  11000519  add      w25, w8, #1

----------------
IN: 
0x00080b60:  c85f7d2a  ldxr     x10, [x9]

----------------
IN: 
0x00080b64:  9100054b  add      x11, x10, #1

----------------
IN: 
0x00080b68:  c80c7d2b  stxr     w12, x11, [x9]

----------------
IN: 
0x00080b6c:  35ffffac  cbnz     w12, #0x80b60

----------------
IN: 
0x00080b70:  b7f8048a  tbnz     x10, #0x3f, #0x80c00

----------------
IN: 
0x00080b74:  f9000be9  str      x9, [sp, #0x10]

----------------
IN: 
0x00080b78:  29035fe8  stp      w8, w23, [sp, #0x18]

----------------
IN: 
0x00080b7c:  b90023f8  str      w24, [sp, #0x20]

----------------
IN: 
0x00080b80:  910043e1  add      x1, sp, #0x10

----------------
IN: 
0x00080b84:  aa1503e0  mov      x0, x21

----------------
IN: 
0x00080b88:  97fffe28  bl       #0x80428

----------------
IN: 
0x00080428:  d10183ff  sub      sp, sp, #0x60

----------------
IN: 
0x0008042c:  f90023f4  str      x20, [sp, #0x40]

----------------
IN: 
0x00080430:  a9057bf3  stp      x19, x30, [sp, #0x50]

----------------
IN: 
0x00080434:  a9402828  ldp      x8, x10, [x1]

----------------
IN: 
0x00080438:  aa0003f3  mov      x19, x0

----------------
IN: 
0x0008043c:  52800300  movz     w0, #0x18

----------------
IN: 
0x00080440:  f9400829  ldr      x9, [x1, #0x10]

----------------
IN: 
0x00080444:  52800101  movz     w1, #0x8

----------------
IN: 
0x00080448:  a9022be8  stp      x8, x10, [sp, #0x20]

----------------
IN: 
0x0008044c:  f9001be9  str      x9, [sp, #0x30]

----------------
IN: 
0x00080450:  9400020c  bl       #0x80c80

----------------
IN: 
0x00080f50:  d2808005  movz     x5, #0x400

----------------
IN: 
0x00080f54:  52800041  movz     w1, #0x2

----------------
IN: 
0x00080f58:  2a0503e9  mov      w9, w5

----------------
IN: 
0x00080f5c:  17ffffc2  b        #0x80e64

----------------
IN: 
0x00080454:  b4000560  cbz      x0, #0x80500

----------------
IN: 
0x00080458:  a94227e8  ldp      x8, x9, [sp, #0x20]

----------------
IN: 
0x0008045c:  f9401bea  ldr      x10, [sp, #0x30]

----------------
IN: 
0x00080460:  f9400274  ldr      x20, [x19]

----------------
IN: 
0x00080464:  a9002408  stp      x8, x9, [x0]

----------------
IN: 
0x00080468:  90000048  adrp     x8, #0x88000

----------------
IN: 
0x0008046c:  9106a108  add      x8, x8, #0x1a8

----------------
IN: 
0x00080470:  f900080a  str      x10, [x0, #0x10]

----------------
IN: 
0x00080474:  390083ff  strb     wzr, [sp, #0x20]

----------------
IN: 
0x00080478:  a902a3e0  stp      x0, x8, [sp, #0x28]

----------------
IN: 
0x0008047c:  b40004b4  cbz      x20, #0x80510

----------------
IN: 
0x00080480:  c85f7e88  ldxr     x8, [x20]

----------------
IN: 
0x00080484:  91000509  add      x9, x8, #1

----------------
IN: 
0x00080488:  c80a7e89  stxr     w10, x9, [x20]

----------------
IN: 
0x0008048c:  35ffffaa  cbnz     w10, #0x80480

----------------
IN: 
0x00080490:  b7f804e8  tbnz     x8, #0x3f, #0x8052c

----------------
IN: 
0x00080494:  ad4107e0  ldp      q0, q1, [sp, #0x20]

----------------
IN: 
0x00080498:  52800800  movz     w0, #0x40

----------------
IN: 
0x0008049c:  52800201  movz     w1, #0x10

----------------
IN: 
0x000804a0:  ad0007e0  stp      q0, q1, [sp]

----------------
IN: 
0x000804a4:  940001f7  bl       #0x80c80

----------------
IN: 
0x000804a8:  b4000460  cbz      x0, #0x80534

----------------
IN: 
0x000804ac:  52800028  movz     w8, #0x1

----------------
IN: 
0x000804b0:  aa0003f3  mov      x19, x0

----------------
IN: 
0x000804b4:  ad4007e2  ldp      q2, q1, [sp]

----------------
IN: 
0x000804b8:  f9001814  str      x20, [x0, #0x30]

----------------
IN: 
0x000804bc:  4e080d00  dup      v0.2d, x8

----------------
IN: 
0x000804c0:  52800201  movz     w1, #0x10

----------------
IN: 
0x000804c4:  ad008402  stp      q2, q1, [x0, #0x10]

----------------
IN: 
0x000804c8:  3d800000  str      q0, [x0]

----------------
IN: 
0x000804cc:  52800200  movz     w0, #0x10

----------------
IN: 
0x000804d0:  940001ec  bl       #0x80c80

----------------
IN: 
0x000804d4:  b4000380  cbz      x0, #0x80544

----------------
IN: 
0x000804d8:  9100a288  add      x8, x20, #0x28

----------------
IN: 
0x000804dc:  a9004c1f  stp      xzr, x19, [x0]

----------------
IN: 
0x000804e0:  c85ffd09  ldaxr    x9, [x8]

----------------
IN: 
0x000804e4:  c80afd00  stlxr    w10, x0, [x8]

----------------
IN: 
0x000804e8:  35ffffca  cbnz     w10, #0x804e0

----------------
IN: 
0x000804ec:  f9000120  str      x0, [x9]

----------------
IN: 
0x000804f0:  a9457bf3  ldp      x19, x30, [sp, #0x50]

----------------
IN: 
0x000804f4:  f94023f4  ldr      x20, [sp, #0x40]

----------------
IN: 
0x000804f8:  910183ff  add      sp, sp, #0x60

----------------
IN: 
0x000804fc:  d65f03c0  ret      

----------------
IN: 
0x00080b8c:  2a1903e8  mov      w8, w25

----------------
IN: 
0x00080b90:  6b13033f  cmp      w25, w19

----------------
IN: 
0x00080b94:  54fffe21  b.ne     #0x80b58

----------------
IN: 
0x00080b98:  f94007e8  ldr      x8, [sp, #8]

----------------
IN: 
0x00080b9c:  c85f7d09  ldxr     x9, [x8]

----------------
IN: 
0x00080ba0:  9100052a  add      x10, x9, #1

----------------
IN: 
0x00080ba4:  c80b7d0a  stxr     w11, x10, [x8]

----------------
IN: 
0x00080ba8:  35ffffab  cbnz     w11, #0x80b9c

----------------
IN: 
0x00080bac:  b7f802a9  tbnz     x9, #0x3f, #0x80c00

----------------
IN: 
0x00080bb0:  a90153e8  stp      x8, x20, [sp, #0x10]

----------------
IN: 
0x00080bb4:  b90023f3  str      w19, [sp, #0x20]

----------------
IN: 
0x00080bb8:  910042c0  add      x0, x22, #0x10

----------------
IN: 
0x00080bbc:  910043e1  add      x1, sp, #0x10

----------------
IN: 
0x00080bc0:  97fffd80  bl       #0x801c0

----------------
IN: 
0x000801c0:  d10183ff  sub      sp, sp, #0x60

----------------
IN: 
0x000801c4:  f90023f4  str      x20, [sp, #0x40]

----------------
IN: 
0x000801c8:  a9057bf3  stp      x19, x30, [sp, #0x50]

----------------
IN: 
0x000801cc:  a9402828  ldp      x8, x10, [x1]

----------------
IN: 
0x000801d0:  aa0003f3  mov      x19, x0

----------------
IN: 
0x000801d4:  52800300  movz     w0, #0x18

----------------
IN: 
0x000801d8:  f9400829  ldr      x9, [x1, #0x10]

----------------
IN: 
0x000801dc:  52800101  movz     w1, #0x8

----------------
IN: 
0x000801e0:  a9022be8  stp      x8, x10, [sp, #0x20]

----------------
IN: 
0x000801e4:  f9001be9  str      x9, [sp, #0x30]

----------------
IN: 
0x000801e8:  940002a6  bl       #0x80c80

----------------
IN: 
0x000801ec:  b4000560  cbz      x0, #0x80298

----------------
IN: 
0x000801f0:  a94227e8  ldp      x8, x9, [sp, #0x20]

----------------
IN: 
0x000801f4:  f9401bea  ldr      x10, [sp, #0x30]

----------------
IN: 
0x000801f8:  f9400274  ldr      x20, [x19]

----------------
IN: 
0x000801fc:  a9002408  stp      x8, x9, [x0]

----------------
IN: 
0x00080200:  90000048  adrp     x8, #0x88000

----------------
IN: 
0x00080204:  9104e108  add      x8, x8, #0x138

----------------
IN: 
0x00080208:  f900080a  str      x10, [x0, #0x10]

----------------
IN: 
0x0008020c:  390083ff  strb     wzr, [sp, #0x20]

----------------
IN: 
0x00080210:  a902a3e0  stp      x0, x8, [sp, #0x28]

----------------
IN: 
0x00080214:  b40004b4  cbz      x20, #0x802a8

----------------
IN: 
0x00080218:  c85f7e88  ldxr     x8, [x20]

----------------
IN: 
0x0008021c:  91000509  add      x9, x8, #1

----------------
IN: 
0x00080220:  c80a7e89  stxr     w10, x9, [x20]

----------------
IN: 
0x00080224:  35ffffaa  cbnz     w10, #0x80218

----------------
IN: 
0x00080228:  b7f804e8  tbnz     x8, #0x3f, #0x802c4

----------------
IN: 
0x0008022c:  ad4107e0  ldp      q0, q1, [sp, #0x20]

----------------
IN: 
0x00080230:  52800800  movz     w0, #0x40

----------------
IN: 
0x00080234:  52800201  movz     w1, #0x10

----------------
IN: 
0x00080238:  ad0007e0  stp      q0, q1, [sp]

----------------
IN: 
0x0008023c:  94000291  bl       #0x80c80

----------------
IN: 
0x00080240:  b4000460  cbz      x0, #0x802cc

----------------
IN: 
0x00080244:  52800028  movz     w8, #0x1

----------------
IN: 
0x00080248:  aa0003f3  mov      x19, x0

----------------
IN: 
0x0008024c:  ad4007e2  ldp      q2, q1, [sp]

----------------
IN: 
0x00080250:  f9001814  str      x20, [x0, #0x30]

----------------
IN: 
0x00080254:  4e080d00  dup      v0.2d, x8

----------------
IN: 
0x00080258:  52800201  movz     w1, #0x10

----------------
IN: 
0x0008025c:  ad008402  stp      q2, q1, [x0, #0x10]

----------------
IN: 
0x00080260:  3d800000  str      q0, [x0]

----------------
IN: 
0x00080264:  52800200  movz     w0, #0x10

----------------
IN: 
0x00080268:  94000286  bl       #0x80c80

----------------
IN: 
0x0008026c:  b4000380  cbz      x0, #0x802dc

----------------
IN: 
0x00080270:  9100a288  add      x8, x20, #0x28

----------------
IN: 
0x00080274:  a9004c1f  stp      xzr, x19, [x0]

----------------
IN: 
0x00080278:  c85ffd09  ldaxr    x9, [x8]

----------------
IN: 
0x0008027c:  c80afd00  stlxr    w10, x0, [x8]

----------------
IN: 
0x00080280:  35ffffca  cbnz     w10, #0x80278

----------------
IN: 
0x00080284:  f9000120  str      x0, [x9]

----------------
IN: 
0x00080288:  a9457bf3  ldp      x19, x30, [sp, #0x50]

----------------
IN: 
0x0008028c:  f94023f4  ldr      x20, [sp, #0x40]

----------------
IN: 
0x00080290:  910183ff  add      sp, sp, #0x60

----------------
IN: 
0x00080294:  d65f03c0  ret      

----------------
IN: 
0x00080bc4:  f94007e8  ldr      x8, [sp, #8]

----------------
IN: 
0x00080bc8:  c85f7d09  ldxr     x9, [x8]

----------------
IN: 
0x00080bcc:  f1000529  subs     x9, x9, #1

----------------
IN: 
0x00080bd0:  c80afd09  stlxr    w10, x9, [x8]

----------------
IN: 
0x00080bd4:  35ffffaa  cbnz     w10, #0x80bc8

----------------
IN: 
0x00080bd8:  54000081  b.ne     #0x80be8

----------------
IN: 
0x00080be8:  a9467bf3  ldp      x19, x30, [sp, #0x60]

----------------
IN: 
0x00080bec:  a94553f5  ldp      x21, x20, [sp, #0x50]

----------------
IN: 
0x00080bf0:  a9445bf7  ldp      x23, x22, [sp, #0x40]

----------------
IN: 
0x00080bf4:  a94363f9  ldp      x25, x24, [sp, #0x30]

----------------
IN: 
0x00080bf8:  9101c3ff  add      sp, sp, #0x70

----------------
IN: 
0x00080bfc:  d65f03c0  ret      

----------------
IN: 
0x00080654:  a9487bf3  ldp      x19, x30, [sp, #0x80]

----------------
IN: 
0x00080658:  52800020  movz     w0, #0x1

----------------
IN: 
0x0008065c:  f9403bf4  ldr      x20, [sp, #0x70]

----------------
IN: 
0x00080660:  910243ff  add      sp, sp, #0x90

----------------
IN: 
0x00080664:  d65f03c0  ret      

----------------
IN: 
0x00081634:  36000060  tbz      w0, #0, #0x81640

----------------
IN: 
0x00081638:  5280003c  movz     w28, #0x1

----------------
IN: 
0x0008163c:  1400000e  b        #0x81674

----------------
IN: 
0x00081674:  f94027e0  ldr      x0, [sp, #0x48]

----------------
IN: 
0x00081678:  f94037e8  ldr      x8, [sp, #0x68]

----------------
IN: 
0x0008167c:  d63f0100  blr      x8

----------------
IN: 
0x00081db0:  d65f03c0  ret      

----------------
IN: 
0x00081680:  3400013c  cbz      w28, #0x816a4

----------------
IN: 
0x00081684:  f94002a8  ldr      x8, [x21]

----------------
IN: 
0x00081688:  aa1403e0  mov      x0, x20

----------------
IN: 
0x0008168c:  d63f0100  blr      x8

----------------
IN: 
0x000801a0:  d65f03c0  ret      

----------------
IN: 
0x00081690:  f94006a1  ldr      x1, [x21, #8]

----------------
IN: 
0x00081694:  b4000081  cbz      x1, #0x816a4

----------------
IN: 
0x000816a4:  085fff5f  ldaxrb   wzr, [x26]

----------------
IN: 
0x000816a8:  0808ff5f  stlxrb   w8, wzr, [x26]

----------------
IN: 
0x000816ac:  35ffffc8  cbnz     w8, #0x816a4

----------------
IN: 
0x000816b0:  f94017e8  ldr      x8, [sp, #0x28]

----------------
IN: 
0x000816b4:  c85f7d09  ldxr     x9, [x8]

----------------
IN: 
0x000816b8:  f1000529  subs     x9, x9, #1

----------------
IN: 
0x000816bc:  c80afd09  stlxr    w10, x9, [x8]

----------------
IN: 
0x000816c0:  35ffffaa  cbnz     w10, #0x816b4

----------------
IN: 
0x000816c4:  54fff6e1  b.ne     #0x815a0

----------------
IN: 
0x000816c8:  d50339bf  dmb      ishld

----------------
IN: 
0x000816cc:  9100a3e0  add      x0, sp, #0x28

----------------
IN: 
0x000816d0:  94000074  bl       #0x818a0

----------------
IN: 
0x000818a0:  f81e0ff4  str      x20, [sp, #0xffffffffffffffe0]!

----------------
IN: 
0x000818a4:  a9017bf3  stp      x19, x30, [sp, #0x10]

----------------
IN: 
0x000818a8:  f9400014  ldr      x20, [x0]

----------------
IN: 
0x000818ac:  aa0003f3  mov      x19, x0

----------------
IN: 
0x000818b0:  f9400e80  ldr      x0, [x20, #0x18]

----------------
IN: 
0x000818b4:  b4000140  cbz      x0, #0x818dc

----------------
IN: 
0x000818dc:  f8430e88  ldr      x8, [x20, #0x30]!

----------------
IN: 
0x000818e0:  c85f7d09  ldxr     x9, [x8]

----------------
IN: 
0x000818e4:  f1000529  subs     x9, x9, #1

----------------
IN: 
0x000818e8:  c80afd09  stlxr    w10, x9, [x8]

----------------
IN: 
0x000818ec:  35ffffaa  cbnz     w10, #0x818e0

----------------
IN: 
0x000818f0:  54000081  b.ne     #0x81900

----------------
IN: 
0x00081900:  f9400268  ldr      x8, [x19]

----------------
IN: 
0x00081904:  91002108  add      x8, x8, #8

----------------
IN: 
0x00081908:  c85f7d09  ldxr     x9, [x8]

----------------
IN: 
0x0008190c:  f1000529  subs     x9, x9, #1

----------------
IN: 
0x00081910:  c80afd09  stlxr    w10, x9, [x8]

----------------
IN: 
0x00081914:  35ffffaa  cbnz     w10, #0x81908

----------------
IN: 
0x00081918:  54000101  b.ne     #0x81938

----------------
IN: 
0x0008191c:  d50339bf  dmb      ishld

----------------
IN: 
0x00081920:  52800801  movz     w1, #0x40

----------------
IN: 
0x00081924:  f9400260  ldr      x0, [x19]

----------------
IN: 
0x00081928:  52800202  movz     w2, #0x10

----------------
IN: 
0x0008192c:  a9417bf3  ldp      x19, x30, [sp, #0x10]

----------------
IN: 
0x00081930:  f84207f4  ldr      x20, [sp], #0x20

----------------
IN: 
0x00081934:  17fffcd7  b        #0x80c90

----------------
IN: 
0x000816d4:  17ffffb3  b        #0x815a0

----------------
IN: 
0x000815a0:  f9400668  ldr      x8, [x19, #8]

----------------
IN: 
0x000815a4:  b4000aa8  cbz      x8, #0x816f8

----------------
IN: 
0x000806f0:  d10283ff  sub      sp, sp, #0xa0

----------------
IN: 
0x000806f4:  f9003bf6  str      x22, [sp, #0x70]

----------------
IN: 
0x000806f8:  a90853f5  stp      x21, x20, [sp, #0x80]

----------------
IN: 
0x000806fc:  a9097bf3  stp      x19, x30, [sp, #0x90]

----------------
IN: 
0x00080700:  2941a408  ldp      w8, w9, [x0, #0xc]

----------------
IN: 
0x00080704:  aa0003f3  mov      x19, x0

----------------
IN: 
0x00080708:  6b09011f  cmp      w8, w9

----------------
IN: 
0x0008070c:  540000e2  b.hs     #0x80728

----------------
IN: 
0x00080710:  11000508  add      w8, w8, #1

----------------
IN: 
0x00080714:  b9000e68  str      w8, [x19, #0xc]

----------------
IN: 
0x00080718:  f9400020  ldr      x0, [x1]

----------------
IN: 
0x0008071c:  94000423  bl       #0x817a8

----------------
IN: 
0x000817a8:  f9400008  ldr      x8, [x0]

----------------
IN: 
0x000817ac:  f9400801  ldr      x1, [x0, #0x10]

----------------
IN: 
0x000817b0:  aa0803e0  mov      x0, x8

----------------
IN: 
0x000817b4:  d61f0020  br       x1

----------------
IN: 
0x00081c98:  f81e0ff4  str      x20, [sp, #0xffffffffffffffe0]!

----------------
IN: 
0x00081c9c:  a9017bf3  stp      x19, x30, [sp, #0x10]

----------------
IN: 
0x00081ca0:  d1004013  sub      x19, x0, #0x10

----------------
IN: 
0x00081ca4:  c85f7e68  ldxr     x8, [x19]

----------------
IN: 
0x00081ca8:  91000509  add      x9, x8, #1

----------------
IN: 
0x00081cac:  c80a7e69  stxr     w10, x9, [x19]

----------------
IN: 
0x00081cb0:  35ffffaa  cbnz     w10, #0x81ca4

----------------
IN: 
0x00081cb4:  b7f801e8  tbnz     x8, #0x3f, #0x81cf0

----------------
IN: 
0x00081cb8:  f9401a74  ldr      x20, [x19, #0x30]

----------------
IN: 
0x00081cbc:  52800200  movz     w0, #0x10

----------------
IN: 
0x00081cc0:  52800201  movz     w1, #0x10

----------------
IN: 
0x00081cc4:  97fffbef  bl       #0x80c80

----------------
IN: 
0x00081cc8:  b4000180  cbz      x0, #0x81cf8

----------------
IN: 
0x00081ccc:  9100a288  add      x8, x20, #0x28

----------------
IN: 
0x00081cd0:  a9004c1f  stp      xzr, x19, [x0]

----------------
IN: 
0x00081cd4:  c85ffd09  ldaxr    x9, [x8]

----------------
IN: 
0x00081cd8:  c80afd00  stlxr    w10, x0, [x8]

----------------
IN: 
0x00081cdc:  35ffffca  cbnz     w10, #0x81cd4

----------------
IN: 
0x00081ce0:  f9000120  str      x0, [x9]

----------------
IN: 
0x00081ce4:  a9417bf3  ldp      x19, x30, [sp, #0x10]

----------------
IN: 
0x00081ce8:  f84207f4  ldr      x20, [sp], #0x20

----------------
IN: 
0x00081cec:  d65f03c0  ret      

----------------
IN: 
0x00080720:  2a1f03e0  mov      w0, wzr

----------------
IN: 
0x00080724:  14000031  b        #0x807e8

----------------
IN: 
0x000807e8:  a9497bf3  ldp      x19, x30, [sp, #0x90]

----------------
IN: 
0x000807ec:  f9403bf6  ldr      x22, [sp, #0x70]

----------------
IN: 
0x000807f0:  a94853f5  ldp      x21, x20, [sp, #0x80]

----------------
IN: 
0x000807f4:  910283ff  add      sp, sp, #0xa0

----------------
IN: 
0x000807f8:  d65f03c0  ret      

----------------
IN: 
0x00081640:  f9400380  ldr      x0, [x28]

----------------
IN: 
0x00081644:  b4000140  cbz      x0, #0x8166c

----------------
IN: 
0x0008166c:  2a1f03fc  mov      w28, wzr

----------------
IN: 
0x00081670:  a901d774  stp      x20, x21, [x27, #0x18]

----------------
IN: 
0x00080830:  d10303ff  sub      sp, sp, #0xc0

----------------
IN: 
0x00080834:  f9003bfa  str      x26, [sp, #0x70]

----------------
IN: 
0x00080838:  a90863f9  stp      x25, x24, [sp, #0x80]

----------------
IN: 
0x0008083c:  a9095bf7  stp      x23, x22, [sp, #0x90]

----------------
IN: 
0x00080840:  a90a53f5  stp      x21, x20, [sp, #0xa0]

----------------
IN: 
0x00080844:  a90b7bf3  stp      x19, x30, [sp, #0xb0]

----------------
IN: 
0x00080848:  90000059  adrp     x25, #0x88000

----------------
IN: 
0x0008084c:  52800035  movz     w21, #0x1

----------------
IN: 
0x00080850:  910003e8  mov      x8, sp

----------------
IN: 
0x00080854:  90000058  adrp     x24, #0x88000

----------------
IN: 
0x00080858:  aa0003f4  mov      x20, x0

----------------
IN: 
0x0008085c:  9100401a  add      x26, x0, #0x10

----------------
IN: 
0x00080860:  f9440b39  ldr      x25, [x25, #0x810]

----------------
IN: 
0x00080864:  91096318  add      x24, x24, #0x258

----------------
IN: 
0x00080868:  a90657e8  stp      x8, x21, [sp, #0x60]

----------------
IN: 
0x0008086c:  9100a3e8  add      x8, sp, #0x28

----------------
IN: 
0x00080870:  910103e0  add      x0, sp, #0x40

----------------
IN: 
0x00080874:  aa0103f3  mov      x19, x1

----------------
IN: 
0x00080878:  a90457f8  stp      x24, x21, [sp, #0x40]

----------------
IN: 
0x0008087c:  9100a3f7  add      x23, sp, #0x28

----------------
IN: 
0x00080880:  a90067fa  stp      x26, x25, [sp]

----------------
IN: 
0x00080884:  a9057fff  stp      xzr, xzr, [sp, #0x50]

----------------
IN: 
0x00080888:  94001159  bl       #0x84dec

----------------
IN: 
0x00084ec4:  ab1502b5  adds     x21, x21, x21

----------------
IN: 
0x00084ec8:  54000063  b.lo     #0x84ed4

----------------
IN: 
0x00085490:  d10103ff  sub      sp, sp, #0x40

----------------
IN: 
0x00085494:  f9001bfe  str      x30, [sp, #0x30]

----------------
IN: 
0x00085498:  b9400009  ldr      w9, [x0]

----------------
IN: 
0x0008549c:  f0000008  adrp     x8, #0x88000

----------------
IN: 
0x000854a0:  f942ed08  ldr      x8, [x8, #0x5d8]

----------------
IN: 
0x000854a4:  aa0103e0  mov      x0, x1

----------------
IN: 
0x000854a8:  d3447d2a  ubfx     x10, x9, #4, #0x1c

----------------
IN: 
0x000854ac:  7109c55f  cmp      w10, #0x271

----------------
IN: 
0x000854b0:  54000443  b.lo     #0x85538

----------------
IN: 
0x00085538:  528004ea  movz     w10, #0x27

----------------
IN: 
0x0008553c:  f1018d3f  cmp      x9, #0x63

----------------
IN: 
0x00085540:  540001c9  b.ls     #0x85578

----------------
IN: 
0x00085578:  f100293f  cmp      x9, #0xa

----------------
IN: 
0x0008557c:  540000ca  b.ge     #0x85594

----------------
IN: 
0x00085580:  d1000548  sub      x8, x10, #1

----------------
IN: 
0x00085584:  1100c129  add      w9, w9, #0x30

----------------
IN: 
0x00085588:  910023ea  add      x10, sp, #8

----------------
IN: 
0x0008558c:  38286949  strb     w9, [x10, x8]

----------------
IN: 
0x00085590:  14000005  b        #0x855a4

----------------
IN: 
0x000855a4:  910023e9  add      x9, sp, #8

----------------
IN: 
0x000855a8:  528004ea  movz     w10, #0x27

----------------
IN: 
0x000855ac:  d0000002  adrp     x2, #0x87000

----------------
IN: 
0x000855b0:  8b080124  add      x4, x9, x8

----------------
IN: 
0x000855b4:  cb080145  sub      x5, x10, x8

----------------
IN: 
0x000855b8:  91078442  add      x2, x2, #0x1e1

----------------
IN: 
0x000855bc:  52800021  movz     w1, #0x1

----------------
IN: 
0x000855c0:  aa1f03e3  mov      x3, xzr

----------------
IN: 
0x000855c4:  940001c4  bl       #0x85cd4

----------------
IN: 
0x00085cd4:  f81b0ffa  str      x26, [sp, #0xffffffffffffffb0]!

----------------
IN: 
0x00085cd8:  a90163f9  stp      x25, x24, [sp, #0x10]

----------------
IN: 
0x00085cdc:  a9025bf7  stp      x23, x22, [sp, #0x20]

----------------
IN: 
0x00085ce0:  a90353f5  stp      x21, x20, [sp, #0x30]

----------------
IN: 
0x00085ce4:  a9047bf3  stp      x19, x30, [sp, #0x40]

----------------
IN: 
0x00085ce8:  aa0503f4  mov      x20, x5

----------------
IN: 
0x00085cec:  aa0403f5  mov      x21, x4

----------------
IN: 
0x00085cf0:  aa0303f6  mov      x22, x3

----------------
IN: 
0x00085cf4:  aa0203f7  mov      x23, x2

----------------
IN: 
0x00085cf8:  aa0003f3  mov      x19, x0

----------------
IN: 
0x00085cfc:  34000201  cbz      w1, #0x85d3c

----------------
IN: 
0x00085d00:  b9405268  ldr      w8, [x19, #0x50]

----------------
IN: 
0x00085d04:  52800569  movz     w9, #0x2b

----------------
IN: 
0x00085d08:  52a0022a  movz     w10, #0x11, lsl #16

----------------
IN: 
0x00085d0c:  9240010b  and      x11, x8, #1

----------------
IN: 
0x00085d10:  7100017f  cmp      w11, #0

----------------
IN: 
0x00085d14:  1a890158  csel     w24, w10, w9, eq

----------------
IN: 
0x00085d18:  8b140169  add      x9, x11, x20

----------------
IN: 
0x00085d1c:  36100188  tbz      w8, #2, #0x85d4c

----------------
IN: 
0x00085d4c:  aa1f03f6  mov      x22, xzr

----------------
IN: 
0x00085d50:  aa1f03f7  mov      x23, xzr

----------------
IN: 
0x00085d54:  f940026a  ldr      x10, [x19]

----------------
IN: 
0x00085d58:  f100055f  cmp      x10, #1

----------------
IN: 
0x00085d5c:  540004e0  b.eq     #0x85df8

----------------
IN: 
0x00085d60:  aa1303e0  mov      x0, x19

----------------
IN: 
0x00085d64:  2a1803e1  mov      w1, w24

----------------
IN: 
0x00085d68:  aa1703e2  mov      x2, x23

----------------
IN: 
0x00085d6c:  aa1603e3  mov      x3, x22

----------------
IN: 
0x00085d70:  940000a8  bl       #0x86010

----------------
IN: 
0x00086010:  a9be53f5  stp      x21, x20, [sp, #-0x20]!

----------------
IN: 
0x00086014:  a9017bf3  stp      x19, x30, [sp, #0x10]

----------------
IN: 
0x00086018:  aa0303f3  mov      x19, x3

----------------
IN: 
0x0008601c:  aa0203f4  mov      x20, x2

----------------
IN: 
0x00086020:  7144403f  cmp      w1, #0x110, lsl #12

----------------
IN: 
0x00086024:  aa0003f5  mov      x21, x0

----------------
IN: 
0x00086028:  54000120  b.eq     #0x8604c

----------------
IN: 
0x0008604c:  b4000114  cbz      x20, #0x8606c

----------------
IN: 
0x0008606c:  2a1f03e0  mov      w0, wzr

----------------
IN: 
0x00086070:  a9417bf3  ldp      x19, x30, [sp, #0x10]

----------------
IN: 
0x00086074:  a8c253f5  ldp      x21, x20, [sp], #0x20

----------------
IN: 
0x00086078:  d65f03c0  ret      

----------------
IN: 
0x00085d74:  34000720  cbz      w0, #0x85e58

----------------
IN: 
0x00085e58:  a9422260  ldp      x0, x8, [x19, #0x20]

----------------
IN: 
0x00085e5c:  aa1503e1  mov      x1, x21

----------------
IN: 
0x00085e60:  aa1403e2  mov      x2, x20

----------------
IN: 
0x00085e64:  a9447bf3  ldp      x19, x30, [sp, #0x40]

----------------
IN: 
0x00085e68:  f9400d03  ldr      x3, [x8, #0x18]

----------------
IN: 
0x00085e6c:  a94353f5  ldp      x21, x20, [sp, #0x30]

----------------
IN: 
0x00085e70:  a9425bf7  ldp      x23, x22, [sp, #0x20]

----------------
IN: 
0x00085e74:  a94163f9  ldp      x25, x24, [sp, #0x10]

----------------
IN: 
0x00085e78:  f84507fa  ldr      x26, [sp], #0x50

----------------
IN: 
0x00085e7c:  d61f0060  br       x3

----------------
IN: 
0x000855c8:  f9401bfe  ldr      x30, [sp, #0x30]

----------------
IN: 
0x000855cc:  910103ff  add      sp, sp, #0x40

----------------
IN: 
0x000855d0:  d65f03c0  ret      

----------------
IN: 
0x0008088c:  90000016  adrp     x22, #0x80000

----------------
IN: 
0x00080890:  52800048  movz     w8, #0x2

----------------
IN: 
0x00080894:  911b62d6  add      x22, x22, #0x6d8

----------------
IN: 
0x00080898:  a9057fff  stp      xzr, xzr, [sp, #0x50]

----------------
IN: 
0x0008089c:  a901dbf7  stp      x23, x22, [sp, #0x18]

----------------
IN: 
0x000808a0:  90000057  adrp     x23, #0x88000

----------------
IN: 
0x000808a4:  910862f7  add      x23, x23, #0x218

----------------
IN: 
0x000808a8:  a90423f7  stp      x23, x8, [sp, #0x40]

----------------
IN: 
0x000808ac:  910063e8  add      x8, sp, #0x18

----------------
IN: 
0x000808b0:  a90657e8  stp      x8, x21, [sp, #0x60]

----------------
IN: 
0x000808b4:  910003e8  mov      x8, sp

----------------
IN: 
0x000808b8:  910103e0  add      x0, sp, #0x40

----------------
IN: 
0x000808bc:  9400114c  bl       #0x84dec

----------------
IN: 
0x000806d8:  f9400008  ldr      x8, [x0]

----------------
IN: 
0x000806dc:  aa0103e2  mov      x2, x1

----------------
IN: 
0x000806e0:  f9400809  ldr      x9, [x0, #0x10]

----------------
IN: 
0x000806e4:  aa0803e0  mov      x0, x8

----------------
IN: 
0x000806e8:  aa0903e1  mov      x1, x9

----------------
IN: 
0x000806ec:  1400177a  b        #0x864d4

----------------
IN: 
0x000808c0:  f9401be1  ldr      x1, [sp, #0x30]

----------------
IN: 
0x000808c4:  b4000081  cbz      x1, #0x808d4

----------------
IN: 
0x000808c8:  f94017e0  ldr      x0, [sp, #0x28]

----------------
IN: 
0x000808cc:  52800022  movz     w2, #0x1

----------------
IN: 
0x000808d0:  940000f0  bl       #0x80c90

----------------
IN: 
0x000808d4:  a94023f5  ldp      x21, x8, [sp]

----------------
IN: 
0x000808d8:  f9400be1  ldr      x1, [sp, #0x10]

----------------
IN: 
0x000808dc:  a90423f5  stp      x21, x8, [sp, #0x40]

----------------
IN: 
0x000808e0:  f9002be1  str      x1, [sp, #0x50]

----------------
IN: 
0x000808e4:  aa1503e0  mov      x0, x21

----------------
IN: 
0x000808e8:  940010ac  bl       #0x84b98

----------------
IN: 
0x000808ec:  f94027e1  ldr      x1, [sp, #0x48]

----------------
IN: 
0x000808f0:  b4000081  cbz      x1, #0x80900

----------------
IN: 
0x000808f4:  aa1503e0  mov      x0, x21

----------------
IN: 
0x000808f8:  52800022  movz     w2, #0x1

----------------
IN: 
0x000808fc:  940000e5  bl       #0x80c90

----------------
IN: 
0x00080900:  f9400288  ldr      x8, [x20]

----------------
IN: 
0x00080904:  91004100  add      x0, x8, #0x10

----------------
IN: 
0x00080908:  940010da  bl       #0x84c70

----------------
IN: 
0x00084c70:  aa0003e8  mov      x8, x0

----------------
IN: 
0x00084c74:  52800029  movz     w9, #0x1

----------------
IN: 
0x00084c78:  085ffd0a  ldaxrb   w10, [x8]

----------------
IN: 
0x00084c7c:  3400008a  cbz      w10, #0x84c8c

----------------
IN: 
0x00084c8c:  080afd09  stlxrb   w10, w9, [x8]

----------------
IN: 
0x00084c90:  35ffffaa  cbnz     w10, #0x84c84

----------------
IN: 
0x00084c94:  91000909  add      x9, x8, #2

----------------
IN: 
0x00084c98:  48dffd2a  ldarh    w10, [x9]

----------------
IN: 
0x00084c9c:  72003d5f  tst      w10, #0xffff

----------------
IN: 
0x00084ca0:  54000100  b.eq     #0x84cc0

----------------
IN: 
0x00084cc0:  52800020  movz     w0, #0x1

----------------
IN: 
0x00084cc4:  089ffd1f  stlrb    wzr, [x8]

----------------
IN: 
0x00084cc8:  d65f03c0  ret      

----------------
IN: 
0x0008090c:  b9401288  ldr      w8, [x20, #0x10]

----------------
IN: 
0x00080910:  37000060  tbnz     w0, #0, #0x8091c

----------------
IN: 
0x0008091c:  34000508  cbz      w8, #0x809bc

----------------
IN: 
0x00080920:  52800034  movz     w20, #0x1

----------------
IN: 
0x00080924:  910003e8  mov      x8, sp

----------------
IN: 
0x00080928:  910103e0  add      x0, sp, #0x40

----------------
IN: 
0x0008092c:  a90067fa  stp      x26, x25, [sp]

----------------
IN: 
0x00080930:  a9057fff  stp      xzr, xzr, [sp, #0x50]

----------------
IN: 
0x00080934:  9100a3f5  add      x21, sp, #0x28

----------------
IN: 
0x00080938:  a90653e8  stp      x8, x20, [sp, #0x60]

----------------
IN: 
0x0008093c:  9100a3e8  add      x8, sp, #0x28

----------------
IN: 
0x00080940:  a90453f8  stp      x24, x20, [sp, #0x40]

----------------
IN: 
0x00080944:  9400112a  bl       #0x84dec

----------------
IN: 
0x00080948:  52800048  movz     w8, #0x2

----------------
IN: 
0x0008094c:  a901dbf5  stp      x21, x22, [sp, #0x18]

----------------
IN: 
0x00080950:  a9057fff  stp      xzr, xzr, [sp, #0x50]

----------------
IN: 
0x00080954:  a90423f7  stp      x23, x8, [sp, #0x40]

----------------
IN: 
0x00080958:  910063e8  add      x8, sp, #0x18

----------------
IN: 
0x0008095c:  a90653e8  stp      x8, x20, [sp, #0x60]

----------------
IN: 
0x00080960:  910003e8  mov      x8, sp

----------------
IN: 
0x00080964:  910103e0  add      x0, sp, #0x40

----------------
IN: 
0x00080968:  94001121  bl       #0x84dec

----------------
IN: 
0x0008096c:  f9401be1  ldr      x1, [sp, #0x30]

----------------
IN: 
0x00080970:  b4000081  cbz      x1, #0x80980

----------------
IN: 
0x00080974:  f94017e0  ldr      x0, [sp, #0x28]

----------------
IN: 
0x00080978:  52800022  movz     w2, #0x1

----------------
IN: 
0x0008097c:  940000c5  bl       #0x80c90

----------------
IN: 
0x00080980:  a94023f4  ldp      x20, x8, [sp]

----------------
IN: 
0x00080984:  f9400be1  ldr      x1, [sp, #0x10]

----------------
IN: 
0x00080988:  a90423f4  stp      x20, x8, [sp, #0x40]

----------------
IN: 
0x0008098c:  f9002be1  str      x1, [sp, #0x50]

----------------
IN: 
0x00080990:  aa1403e0  mov      x0, x20

----------------
IN: 
0x00080994:  94001081  bl       #0x84b98

----------------
IN: 
0x00080998:  f94027e1  ldr      x1, [sp, #0x48]

----------------
IN: 
0x0008099c:  b4000081  cbz      x1, #0x809ac

----------------
IN: 
0x000809a0:  aa1403e0  mov      x0, x20

----------------
IN: 
0x000809a4:  52800022  movz     w2, #0x1

----------------
IN: 
0x000809a8:  940000ba  bl       #0x80c90

----------------
IN: 
0x000809ac:  f9400260  ldr      x0, [x19]

----------------
IN: 
0x000809b0:  9400037e  bl       #0x817a8

----------------
IN: 
0x000809b4:  2a1f03e0  mov      w0, wzr

----------------
IN: 
0x000809b8:  14000034  b        #0x80a88

----------------
IN: 
0x00080a88:  a94b7bf3  ldp      x19, x30, [sp, #0xb0]

----------------
IN: 
0x00080a8c:  f9403bfa  ldr      x26, [sp, #0x70]

----------------
IN: 
0x00080a90:  a94a53f5  ldp      x21, x20, [sp, #0xa0]

----------------
IN: 
0x00080a94:  a9495bf7  ldp      x23, x22, [sp, #0x90]

----------------
IN: 
0x00080a98:  a94863f9  ldp      x25, x24, [sp, #0x80]

----------------
IN: 
0x00080a9c:  910303ff  add      sp, sp, #0xc0

----------------
IN: 
0x00080aa0:  d65f03c0  ret      

